(i__main__
DCS
p0
(dp1
S'lemmas'
p2
(lp3
(lp4
S'k\xe1\xb9\x9b'
p5
aa(lp6
S'na'
p7
aS'artha'
p8
aS'siddhi'
p9
aa(lp10
S'mad'
p11
aa(lp12
S'bh\xc5\xab'
p13
aS'iti'
p14
aa(lp15
S'ha'
p16
aa(lp17
S'bh\xc4\x81rata'
p18
aasS'dcs_chunks'
p19
(lp20
g5
ag7
ag8
ag9
ag11
ag13
ag14
ag16
ag18
asS'sent_id'
p21
I101691
sS'cng'
p22
(lp23
(lp24
S'-10'
p25
aa(lp26
S'2'
p27
aS'3'
p28
aS'30'
p29
aa(lp30
S'152'
p31
aa(lp32
S'-13'
p33
ag27
aa(lp34
g27
aa(lp35
S'49'
p36
aasS'sentence'
p37
S'kurvato nArTasidDir me BavatIti ha BArata   '
p38
sb.