(i__main__
DCS
p0
(dp1
S'lemmas'
p2
(lp3
(lp4
S'dharma'
p5
aS'k\xc4\x81ma'
p6
aa(lp7
S'prat\xc4\xab'
p8
aa(lp9
S'pratipad'
p10
aa(lp11
S'sma'
p12
aa(lp13
S'bh\xc4\x81rata'
p14
aasS'dcs_chunks'
p15
(lp16
g5
ag6
ag8
ag10
ag12
ag14
asS'sent_id'
p17
I101858
sS'cng'
p18
(lp19
(lp20
S'3'
p21
aS'169'
p22
aa(lp23
S'-190'
p24
aa(lp25
S'-190'
p26
aa(lp27
S'2'
p28
aa(lp29
S'49'
p30
aasS'sentence'
p31
S'DarmakAme pratItasya pratipannAH  sma BArata   '
p32
sb.