(i__main__
DCS
p0
(dp1
S'lemmas'
p2
(lp3
(lp4
S'mad'
p5
aS'artha'
p6
aa(lp7
S'bh\xc5\xab'
p8
aS'v\xc4\x81'
p9
aS'idam'
p10
aa(lp11
S'up\xc4\x81ya'
p12
aS'cintay'
p13
aa(lp14
S'mahant'
p15
aasS'dcs_chunks'
p16
(lp17
g5
ag6
ag8
ag9
ag10
ag12
ag13
ag15
asS'sent_id'
p18
I105376
sS'cng'
p19
(lp20
(lp21
S'142'
p22
aS'169'
p23
aa(lp24
S'-23'
p25
aS'2'
p26
aS'29'
p27
aa(lp28
S'29'
p29
aS'-190'
p30
aa(lp31
S'29'
p32
aasS'sentence'
p33
S'asmadarTe BavedvAyam upAyaScintito mahAn   '
p34
sb.