(i__main__
DCS
p0
(dp1
S'lemmas'
p2
(lp3
(lp4
S'sva'
p5
aS'a\xe1\xb9\x85ga'
p6
aS'r\xc5\xabpa'
p7
aa(lp8
S'bh\xc4\x81va'
p9
aa(lp10
S'pram\xc4\x81t\xe1\xb9\x9b'
p11
aa(lp12
S'kathay'
p13
aa(lp14
S'pati'
p15
aasS'dcs_chunks'
p16
(lp17
g5
ag6
ag7
ag9
ag11
ag13
ag15
asS'sent_id'
p18
I10858
sS'cng'
p19
(lp20
(lp21
S'3'
p22
ag22
aS'179'
p23
aa(lp24
S'179'
p25
aa(lp26
S'29'
p27
aa(lp28
S'-243'
p29
aa(lp30
S'29'
p31
aasS'sentence'
p32
S'svANgarUpezu BAvezu pramAtA kaTyate patiH    '
p33
sb.