(i__main__
DCS
p0
(dp1
S'lemmas'
p2
(lp3
(lp4
S'hemanta'
p5
aS'abhyas'
p6
aa(lp7
S'toya'
p8
aS'u\xe1\xb9\xa3\xe1\xb9\x87a'
p9
aa(lp10
S'ca'
p11
aS'\xc4\x81yus'
p12
aS'na'
p13
aa(lp14
S'h\xc4\x81'
p15
aasS'dcs_chunks'
p16
(lp17
g5
ag6
ag8
ag9
ag11
ag12
ag13
ag15
asS'sent_id'
p18
I111275
sS'cng'
p19
(lp20
(lp21
S'169'
p22
aS'-10'
p23
aa(lp24
S'71'
p25
aS'71'
p26
aa(lp27
S'2'
p28
aS'31'
p29
ag28
aa(lp30
S'-243'
p31
aasS'sentence'
p32
S"hemante'Byasyatas toyamuzRaM cAyurna hIyate   "
p33
sb.