(i__main__
DCS
p0
(dp1
S'lemmas'
p2
(lp3
(lp4
S'vaiku\xe1\xb9\x87\xe1\xb9\xadha'
p5
aS'dar\xc5\x9bana'
p6
aa(lp7
S'k\xc4\x81ray'
p8
aa(lp9
S'aprameya'
p10
aa(lp11
S'tad'
p12
aa(lp13
S'pa\xc3\xb1cama'
p14
aS'manu'
p15
aa(lp16
S'samaya'
p17
aa(lp18
S'prasidh'
p19
aasS'dcs_chunks'
p20
(lp21
g5
ag6
ag8
ag10
ag12
ag14
ag15
ag17
ag19
asS'sent_id'
p22
I11725
sS'cng'
p23
(lp24
(lp25
S'3'
p26
aS'71'
p27
aa(lp28
S'-43'
p29
aa(lp30
S'29'
p31
aa(lp32
S'150'
p33
aa(lp34
g26
aS'149'
p35
aa(lp36
S'169'
p37
aa(lp38
S'-190'
p39
aasS'sentence'
p40
S'vEkuRWadarSanam akArayad aprameyas tasyAH  paYcamamanoH  samaye prasidDam   '
p41
sb.