(i__main__
DCS
p0
(dp1
S'lemmas'
p2
(lp3
(lp4
S'k\xc4\x81rya'
p5
aS'k\xc4\x81ra\xe1\xb9\x87a'
p6
aS'bh\xc4\x81va'
p7
aa(lp8
S'tath\xc4\x81'
p9
aa(lp10
S'tad'
p11
aa(lp12
S'prav\xe1\xb9\x9bt'
p13
aasS'dcs_chunks'
p14
(lp15
g5
ag6
ag7
ag9
ag11
ag13
asS'sent_id'
p16
I123447
sS'cng'
p17
(lp18
(lp19
S'3'
p20
ag20
aS'89'
p21
aa(lp22
S'2'
p23
aa(lp24
S'149'
p25
aa(lp26
S'-13'
p27
aasS'sentence'
p28
S'kAryakAraRaBAvena taTA tasya pravartate   '
p29
sb.