(i__main__
DCS
p0
(dp1
S'lemmas'
p2
(lp3
(lp4
S'gam'
p5
aS'gam'
p6
aS'antara'
p7
aS'abhyas'
p8
aa(lp9
S'vibhaj'
p10
aa(lp11
S'tattva'
p12
aS'locana'
p13
aasS'dcs_chunks'
p14
(lp15
g5
ag6
ag7
ag8
ag10
ag12
ag13
asS'sent_id'
p16
I12400
sS'cng'
p17
(lp18
(lp19
S'-190'
p20
aS'-210'
p21
aS'3'
p22
aS'-190'
p23
aa(lp24
S'-23'
p25
aa(lp26
g22
aS'101'
p27
aasS'sentence'
p28
S'gatagamyAntarAByastaM viBajet tattvalocanEH    '
p29
sb.