(i__main__
DCS
p0
(dp1
S'lemmas'
p2
(lp3
(lp4
S'man'
p5
aa(lp6
S'yama'
p7
aS'sahasra'
p8
aa(lp9
S's\xe1\xb9\x9bj'
p10
aa(lp11
S'yama'
p12
aS'm\xc4\x81y\xc4\x81'
p13
aasS'dcs_chunks'
p14
(lp15
g5
ag7
ag8
ag10
ag12
ag13
asS'sent_id'
p16
I126908
sS'cng'
p17
(lp18
(lp19
S'-153'
p20
aa(lp21
S'3'
p22
aS'81'
p23
aa(lp24
S'-190'
p25
aa(lp26
g22
aS'90'
p27
aasS'sentence'
p28
S'mene yamasahasrARi sfzwAni yamamAyayA   '
p29
sb.