(i__main__
DCS
p0
(dp1
S'lemmas'
p2
(lp3
(lp4
S'saras'
p5
aS'eka'
p6
aa(lp7
S'p\xc4\x81da'
p8
aa(lp9
S'sth\xc4\x81'
p10
aa(lp11
S'apar\xc4\x81jita'
p12
aasS'dcs_chunks'
p13
(lp14
g5
ag6
ag8
ag10
ag12
asS'sent_id'
p15
I128849
sS'cng'
p16
(lp17
(lp18
S'171'
p19
aS'89'
p20
aa(lp21
S'89'
p22
aa(lp23
S'-10'
p24
aa(lp25
S'69'
p26
aasS'sentence'
p27
S'sarasyekena pAdena tizWantam aparAjitam   '
p28
sb.