(i__main__
DCS
p0
(dp1
S'lemmas'
p2
(lp3
(lp4
S'tad'
p5
aa(lp6
S'eka'
p7
aa(lp8
S'api'
p9
aa(lp10
S'yad'
p11
aa(lp12
S'pa\xc5\x9b'
p13
aa(lp14
S'tad'
p15
aa(lp16
S't\xc5\xabr\xe1\xb9\x87a'
p17
aa(lp18
S'bhasmas\xc4\x81t'
p19
aa(lp20
S'bh\xc5\xab'
p21
aasS'dcs_chunks'
p22
(lp23
g5
ag7
ag9
ag11
ag13
ag15
ag17
ag19
ag21
asS'sent_id'
p24
I133876
sS'cng'
p25
(lp26
(lp27
S'154'
p28
aa(lp29
S'29'
p30
aa(lp31
S'2'
p32
aa(lp33
S'69'
p34
aa(lp35
S'-23'
p36
aa(lp37
S'29'
p38
aa(lp39
S'71'
p40
aa(lp41
g32
aa(lp42
S'-23'
p43
aasS'sentence'
p44
S"tayor eko 'pi yaM paSyet sa tUrRaM BasmasAd Bavet   "
p45
sb.