(i__main__
DCS
p0
(dp1
S'lemmas'
p2
(lp3
(lp4
S'm\xc5\xabrdhan'
p5
aS'taila'
p6
aa(lp7
S'bahu'
p8
aS'gu\xe1\xb9\x87a'
p9
aa(lp10
S'tad'
p11
aa(lp12
S'vid'
p13
aa(lp14
S'uttarottara'
p15
aasS'dcs_chunks'
p16
(lp17
g5
ag6
ag8
ag9
ag11
ag13
ag15
asS'sent_id'
p18
I134219
sS'cng'
p19
(lp20
(lp21
S'3'
p22
aS'31'
p23
aa(lp24
g22
aS'31'
p25
aa(lp26
S'71'
p27
aa(lp28
S'-23'
p29
aa(lp30
S'71'
p31
aasS'sentence'
p32
S'mUrDatElaM bahuguRaM tad vidyAd uttarottaram   '
p33
sb.