(i__main__
DCS
p0
(dp1
S'lemmas'
p2
(lp3
(lp4
S'sthapati'
p5
aa(lp6
S'buddhi'
p7
aS'sampad'
p8
aa(lp9
S'v\xc4\x81stu'
p10
aS'vidy\xc4\x81'
p11
aS'vi\xc5\x9b\xc4\x81rada'
p12
aasS'dcs_chunks'
p13
(lp14
g5
ag7
ag8
ag10
ag11
ag12
asS'sent_id'
p15
I136664
sS'cng'
p16
(lp17
(lp18
S'29'
p19
aa(lp20
S'3'
p21
aS'-190'
p22
aa(lp23
g21
ag21
aS'29'
p24
aasS'sentence'
p25
S'sTapatir budDisampanno vAstuvidyAviSAradaH    '
p26
sb.