(i__main__
DCS
p0
(dp1
S'lemmas'
p2
(lp3
(lp4
S'tad'
p5
aa(lp6
S'jan'
p7
aa(lp8
S'm\xc4\x81nu\xe1\xb9\xa3a'
p9
aa(lp10
S'loka'
p11
aa(lp12
S'\xc5\x9bi\xc5\x9bup\xc4\x81la'
p13
aa(lp14
S'nara'
p15
aS'\xe1\xb9\x9b\xe1\xb9\xa3abha'
p16
aasS'dcs_chunks'
p17
(lp18
g5
ag7
ag9
ag11
ag13
ag15
ag16
asS'sent_id'
p19
I138453
sS'cng'
p20
(lp21
(lp22
S'29'
p23
aa(lp24
S'-153'
p25
aa(lp26
S'169'
p27
aa(lp28
S'169'
p29
aa(lp30
S'29'
p31
aa(lp32
S'3'
p33
aS'29'
p34
aasS'sentence'
p35
S'sa jajYe mAnuze loke SiSupAlo nararzaBaH    '
p36
sb.