(i__main__
DCS
p0
(dp1
S'lemmas'
p2
(lp3
(lp4
S'jar\xc4\x81'
p5
aS'do\xe1\xb9\xa3a'
p6
aS'tvad'
p7
aS'vac'
p8
aa(lp9
S'idam'
p10
aa(lp11
S'tad'
p12
aa(lp13
S'tvad'
p14
aa(lp15
S'na'
p16
aS'abhipad'
p17
aasS'dcs_chunks'
p18
(lp19
g5
ag6
ag7
ag8
ag10
ag12
ag14
ag16
ag17
asS'sent_id'
p20
I141282
sS'cng'
p21
(lp22
(lp23
S'3'
p24
aS'29'
p25
aS'92'
p26
aS'-190'
p27
aa(lp28
S'29'
p29
aa(lp30
S'131'
p31
aa(lp32
S'32'
p33
aa(lp34
S'2'
p35
aS'-12'
p36
aasS'sentence'
p37
S"jarAdozastvayokto 'yaM tasmAt tvaM nABipadyase   "
p38
sb.