(i__main__
DCS
p0
(dp1
S'lemmas'
p2
(lp3
(lp4
S'\xc5\x9batru'
p5
aa(lp6
S'hor\xc4\x81'
p7
aS'r\xc4\x81\xc5\x9bi'
p8
aa(lp9
S'tad'
p10
aS'adhipati'
p11
aa(lp12
S'janman'
p13
aS'bha'
p14
aa(lp15
S'tad'
p16
aS'\xc4\xab\xc5\x9ba'
p17
aa(lp18
S'v\xc4\x81'
p19
aasS'dcs_chunks'
p20
(lp21
g5
ag7
ag8
ag10
ag11
ag13
ag14
ag16
ag17
ag19
asS'sent_id'
p22
I14195
sS'cng'
p23
(lp24
(lp25
S'149'
p26
aa(lp27
S'3'
p28
aS'29'
p29
aa(lp30
g28
aS'29'
p31
aa(lp32
g28
aS'31'
p33
aa(lp34
g28
aS'29'
p35
aa(lp36
S'2'
p37
aasS'sentence'
p38
S'Satror horArASis tadaDipatir janmaBaM tadISo vA   '
p39
sb.