(i__main__
DCS
p0
(dp1
S'lemmas'
p2
(lp3
(lp4
S'd\xe1\xb9\x9b\xc5\x9b'
p5
aa(lp6
S'tvad'
p7
aa(lp8
S'pauru\xe1\xb9\xa3a'
p9
aa(lp10
S'\xc5\x9bakra'
p11
aa(lp12
S'ra\xe1\xb9\x87a'
p13
aa(lp14
S'\xc5\x9bata\xc5\x9bas'
p15
aa(lp16
S'mad'
p17
aasS'dcs_chunks'
p18
(lp19
g5
ag7
ag9
ag11
ag13
ag15
ag17
asS'sent_id'
p20
I148975
sS'cng'
p21
(lp22
(lp23
S'-190'
p24
aa(lp25
S'152'
p26
aa(lp27
S'31'
p28
aa(lp29
S'49'
p30
aa(lp31
S'179'
p32
aa(lp33
S'2'
p34
aa(lp35
S'92'
p36
aasS'sentence'
p37
S'dfzwaM te pOruzaM Sakra raRezu SataSo mayA   '
p38
sb.