(i__main__
DCS
p0
(dp1
S'lemmas'
p2
(lp3
(lp4
S'tad'
p5
aS'v\xc4\x81kya'
p6
aS'sama'
p7
aS'k\xc4\x81la'
p8
aa(lp9
S'tu'
p10
aa(lp11
S'b\xc4\xabbhatsu'
p12
aa(lp13
S'ni\xc5\x9b\xc4\x81'
p14
aa(lp15
S'\xc5\x9bara'
p16
aasS'dcs_chunks'
p17
(lp18
g5
ag6
ag7
ag8
ag10
ag12
ag14
ag16
asS'sent_id'
p19
I149465
sS'cng'
p20
(lp21
(lp22
S'3'
p23
ag23
ag23
aS'69'
p24
aa(lp25
S'2'
p26
aa(lp27
S'29'
p28
aa(lp29
S'-190'
p30
aa(lp31
S'99'
p32
aasS'sentence'
p33
S'tadvAkyasamakAlaM tu bIBatsur niSitEH  SarEH    '
p34
sb.