(i__main__
DCS
p0
(dp1
S'lemmas'
p2
(lp3
(lp4
S'guru'
p5
aa(lp6
S'samak\xe1\xb9\xa3a'
p7
aa(lp8
S'y\xc4\x81vat'
p9
aa(lp10
S'tvad'
p11
aa(lp12
S'h\xe1\xb9\x9b'
p13
aS'adya'
p14
aa(lp15
S'\xc5\x9biras'
p16
aa(lp17
S'\xc5\x9bara'
p18
aasS'dcs_chunks'
p19
(lp20
g5
ag7
ag9
ag11
ag13
ag14
ag16
ag18
asS'sent_id'
p21
I150031
sS'cng'
p22
(lp23
(lp24
S'149'
p25
aa(lp26
S'71'
p27
aa(lp28
S'2'
p29
aa(lp30
S'152'
p31
aa(lp32
S'-11'
p33
ag29
aa(lp34
S'71'
p35
aa(lp36
S'99'
p37
aasS'sentence'
p38
S'guroH  samakzaM yAvat te harAmyadya SiraH  SarEH    '
p39
sb.