(i__main__
DCS
p0
(dp1
S'lemmas'
p2
(lp3
(lp4
S'tad'
p5
aa(lp6
S'na'
p7
aS'anya'
p8
aS'bh\xc5\xab'
p9
aa(lp10
S'buddhi'
p11
aa(lp12
S'divasa'
p13
aa(lp14
S'divasa'
p15
aa(lp16
S'n\xe1\xb9\x9bpa'
p17
aasS'dcs_chunks'
p18
(lp19
g5
ag7
ag8
ag9
ag11
ag13
ag15
ag17
asS'sent_id'
p20
I169759
sS'cng'
p21
(lp22
(lp23
S'149'
p24
aa(lp25
S'2'
p26
aS'30'
p27
aS'-43'
p28
aa(lp29
S'30'
p30
aa(lp31
S'169'
p32
aa(lp33
S'169'
p34
aa(lp35
S'49'
p36
aasS'sentence'
p37
S'tasya nAnyABavad budDir divase divase nfpa   '
p38
sb.