(i__main__
DCS
p0
(dp1
S'lemmas'
p2
(lp3
(lp4
S'mad'
p5
aa(lp6
S'ca'
p7
aS'api'
p8
aS'antar\xc4\x81tman'
p9
aS'idam'
p10
aa(lp11
S'\xc5\x9buddha'
p12
aa(lp13
S'vid'
p14
aa(lp15
S'vibh\xc4\xab\xe1\xb9\xa3a\xe1\xb9\x87a'
p16
aasS'dcs_chunks'
p17
(lp18
g5
ag7
ag8
ag9
ag10
ag12
ag14
ag16
asS'sent_id'
p19
I177562
sS'cng'
p20
(lp21
(lp22
S'152'
p23
aa(lp24
S'2'
p25
ag25
aS'29'
p26
aS'29'
p27
aa(lp28
S'69'
p29
aa(lp30
S'-13'
p31
aa(lp32
S'69'
p33
aasS'sentence'
p34
S'mama cApyantarAtmAyaM SudDaM vetti viBIzaRam   '
p35
sb.