(i__main__
DCS
p0
(dp1
S'lemmas'
p2
(lp3
(lp4
S'etad'
p5
aa(lp6
S'antara'
p7
aa(lp8
S'tad'
p9
aa(lp10
S'anyonya'
p11
aa(lp12
S'abhidh\xc4\x81v'
p13
aasS'dcs_chunks'
p14
(lp15
g5
ag7
ag9
ag11
ag13
asS'sent_id'
p16
I179019
sS'cng'
p17
(lp18
(lp19
S'171'
p20
aa(lp21
S'171'
p22
aa(lp23
S'159'
p24
aa(lp25
S'69'
p26
aa(lp27
S'-10'
p28
aasS'sentence'
p29
S'etasminn antare tezAm anyonyam aBiDAvatAm   '
p30
sb.