(i__main__
DCS
p0
(dp1
S'lemmas'
p2
(lp3
(lp4
S'var\xe1\xb9\x87a'
p5
aa(lp6
S'svara'
p7
aa(lp8
S'ca'
p9
aa(lp10
S'gandha'
p11
aa(lp12
S'ca'
p13
aa(lp14
S'rasa'
p15
aa(lp16
S'ca'
p17
aS'vac'
p18
aa(lp19
S'p\xe1\xb9\x9bthak'
p20
aa(lp21
S'p\xe1\xb9\x9bthak'
p22
aasS'dcs_chunks'
p23
(lp24
g5
ag7
ag9
ag11
ag13
ag15
ag17
ag18
ag20
ag22
asS'sent_id'
p25
I180611
sS'cng'
p26
(lp27
(lp28
S'169'
p29
aa(lp30
S'169'
p31
aa(lp32
S'2'
p33
aa(lp34
S'169'
p35
aa(lp36
g33
aa(lp37
S'169'
p38
aa(lp39
g33
aS'-190'
p40
aa(lp41
g33
aa(lp42
g33
aasS'sentence'
p43
S'varRe svare ca ganDe ca rase coktaM pfTak pfTak   '
p44
sb.