(i__main__
DCS
p0
(dp1
S'lemmas'
p2
(lp3
(lp4
S'virecana'
p5
aS'atiyoga'
p6
aa(lp7
S'sam\xc4\x81na'
p8
aa(lp9
S'tad'
p10
aa(lp11
S'lak\xe1\xb9\xa3a\xe1\xb9\x87a'
p12
aasS'dcs_chunks'
p13
(lp14
g5
ag6
ag8
ag10
ag12
asS'sent_id'
p15
I189187
sS'cng'
p16
(lp17
(lp18
S'3'
p19
aS'89'
p20
aa(lp21
S'31'
p22
aa(lp23
S'149'
p24
aa(lp25
S'31'
p26
aasS'sentence'
p27
S'virecanAtiyogena samAnaM tasya lakzaRam   '
p28
sb.