(i__main__
DCS
p0
(dp1
S'lemmas'
p2
(lp3
(lp4
S'yad'
p5
aa(lp6
S'bakavratin'
p7
aa(lp8
S'vipra'
p9
aa(lp10
S'yad'
p11
aa(lp12
S'ca'
p13
aa(lp14
S'm\xc4\x81rj\xc4\x81rali\xe1\xb9\x85gin'
p15
aasS'dcs_chunks'
p16
(lp17
g5
ag7
ag9
ag11
ag13
ag15
asS'sent_id'
p18
I19032
sS'cng'
p19
(lp20
(lp21
S'39'
p22
aa(lp23
S'39'
p24
aa(lp25
S'39'
p26
aa(lp27
S'39'
p28
aa(lp29
S'2'
p30
aa(lp31
S'39'
p32
aasS'sentence'
p33
S'ye bakavratino viprA ye ca mArjAraliNginaH    '
p34
sb.