(i__main__
DCS
p0
(dp1
S'lemmas'
p2
(lp3
(lp4
S'stambha'
p5
aa(lp6
S'\xc5\x9bv\xc4\x81sa'
p7
aS'tamas'
p8
aS'v\xe1\xb9\x9bddhi'
p9
aS't\xc4\x81lu'
p10
aS'\xc5\x9bo\xe1\xb9\xa3a'
p11
aS'ca'
p12
aa(lp13
S'jan'
p14
aasS'dcs_chunks'
p15
(lp16
g5
ag7
ag8
ag9
ag10
ag11
ag12
ag14
asS'sent_id'
p17
I190932
sS'cng'
p18
(lp19
(lp20
S'29'
p21
aa(lp22
S'29'
p23
aS'3'
p24
aS'30'
p25
ag24
aS'29'
p26
aS'2'
p27
aa(lp28
S'-13'
p29
aasS'sentence'
p30
S'stamBaH  SvAsastamovfdDistAluSozaSca jAyate   '
p31
sb.