(i__main__
DCS
p0
(dp1
S'lemmas'
p2
(lp3
(lp4
S'etad'
p5
aa(lp6
S'\xe1\xb9\xa3o\xe1\xb8\x8da\xc5\x9ban'
p7
aS'm\xc4\x81sa'
p8
aS'anta'
p9
aa(lp10
S'sarva'
p11
aS'roga'
p12
aS'vimuc'
p13
aasS'dcs_chunks'
p14
(lp15
g5
ag7
ag8
ag9
ag11
ag12
ag13
asS'sent_id'
p16
I199148
sS'cng'
p17
(lp18
(lp19
S'29'
p20
aa(lp21
S'3'
p22
ag22
aS'169'
p23
aa(lp24
g22
aS'129'
p25
aS'-243'
p26
aasS'sentence'
p27
S'eza zoqaSamAsAnte sarvarogAdvimucyate   '
p28
sb.