(i__main__
DCS
p0
(dp1
S'lemmas'
p2
(lp3
(lp4
S't\xc4\x81ra'
p5
aa(lp6
S'pattra'
p7
aS'lepa'
p8
aa(lp9
S'ardha'
p10
aS'ardha'
p11
aa(lp12
S'k\xc4\x81\xc3\xb1cana'
p13
aS'uttama'
p14
aasS'dcs_chunks'
p15
(lp16
g5
ag7
ag8
ag10
ag11
ag13
ag14
asS'sent_id'
p17
I206197
sS'cng'
p18
(lp19
(lp20
S'151'
p21
aa(lp22
S'3'
p23
aS'89'
p24
aa(lp25
g23
aS'169'
p26
aa(lp27
g23
aS'31'
p28
aasS'sentence'
p29
S'tArasya patralepena arDArDe kAYcanottamam   '
p30
sb.