(i__main__
DCS
p0
(dp1
S'lemmas'
p2
(lp3
(lp4
S'tad'
p5
aa(lp6
S'mukha'
p7
aa(lp8
S'k\xe1\xb9\xa3a\xe1\xb9\x87ika'
p9
aa(lp10
S'jan'
p11
aa(lp12
S'kar\xe1\xb9\x87a'
p13
aS'de\xc5\x9ba'
p14
aa(lp15
S'tu'
p16
aa(lp17
S'v\xc4\x81sara'
p18
aasS'dcs_chunks'
p19
(lp20
g5
ag7
ag9
ag11
ag13
ag14
ag16
ag18
asS'sent_id'
p21
I206692
sS'cng'
p22
(lp23
(lp24
S'69'
p25
aa(lp26
S'171'
p27
aa(lp28
S'31'
p29
aa(lp30
S'-190'
p31
aa(lp32
S'3'
p33
aS'169'
p34
aa(lp35
S'2'
p36
aa(lp37
S'31'
p38
aasS'sentence'
p39
S'taM muKe kzaRikaM jAtaM karRadeSe tu vAsaram   '
p40
sb.