(i__main__
DCS
p0
(dp1
S'lemmas'
p2
(lp3
(lp4
S'\xc5\x9barkar\xc4\x81'
p5
aS'sambhava'
p6
aS'etad'
p7
aS'm\xc5\xabtr\xc4\x81gh\xc4\x81ta'
p8
aa(lp9
S'lak\xe1\xb9\xa3a\xe1\xb9\x87a'
p10
aasS'dcs_chunks'
p11
(lp12
g5
ag6
ag7
ag8
ag10
asS'sent_id'
p13
I207233
sS'cng'
p14
(lp15
(lp16
S'3'
p17
aS'149'
p18
aS'31'
p19
aS'149'
p20
aa(lp21
S'31'
p22
aasS'sentence'
p23
S'SarkarAsaMBavasyEtanmUtrAGAtasya lakzaRam   '
p24
sb.