(i__main__
DCS
p0
(dp1
S'lemmas'
p2
(lp3
(lp4
S's\xc4\x81k\xe1\xb9\xa3in'
p5
aS'abh\xc4\x81va'
p6
aa(lp7
S'pra\xe1\xb9\x87idhi'
p8
aa(lp9
S'vayas'
p10
aS'r\xc5\xabpa'
p11
aS'samanvita'
p12
aasS'dcs_chunks'
p13
(lp14
g5
ag6
ag8
ag10
ag11
ag12
asS'sent_id'
p15
I20937
sS'cng'
p16
(lp17
(lp18
S'29'
p19
aS'169'
p20
aa(lp21
S'99'
p22
aa(lp23
S'3'
p24
ag24
aS'99'
p25
aasS'sentence'
p26
S'sAkzyaBAve praRiDiBir vayorUpasamanvitEH    '
p27
sb.