(i__main__
DCS
p0
(dp1
S'lemmas'
p2
(lp3
(lp4
S'gam'
p5
aa(lp6
S'tad'
p7
aa(lp8
S'r\xc4\x81jan'
p9
aS'indra'
p10
aa(lp11
S'mad'
p12
aS'eka'
p13
aa(lp14
S'sth\xc4\x81'
p15
aS'tad\xc4\x81'
p16
aasS'dcs_chunks'
p17
(lp18
g5
ag7
ag9
ag10
ag12
ag13
ag15
ag16
asS'sent_id'
p19
I211267
sS'cng'
p20
(lp21
(lp22
S'-190'
p23
aa(lp24
S'179'
p25
aa(lp26
S'3'
p27
aS'49'
p28
aa(lp29
S'32'
p30
aS'29'
p31
aa(lp32
S'-190'
p33
aS'2'
p34
aasS'sentence'
p35
S'gatezu tezu rAjendra ahamekaH  sTitastadA   '
p36
sb.