(i__main__
DCS
p0
(dp1
S'lemmas'
p2
(lp3
(lp4
S'iti'
p5
aS'evam'
p6
aS'\xc4\x81h\xc4\x81ra'
p7
aS'l\xc4\x81ghava'
p8
aa(lp9
S'tantra'
p10
aa(lp11
S'sidh'
p12
aasS'dcs_chunks'
p13
(lp14
g5
ag6
ag7
ag8
ag10
ag12
asS'sent_id'
p15
I22047
sS'cng'
p16
(lp17
(lp18
S'2'
p19
ag19
aS'3'
p20
aS'31'
p21
aa(lp22
S'171'
p23
aa(lp24
S'-190'
p25
aasS'sentence'
p26
S'ityevamAhAralAGavaM tantre sidDam   '
p27
sb.