(i__main__
DCS
p0
(dp1
S'lemmas'
p2
(lp3
(lp4
S'atra'
p5
aS'idam'
p6
aa(lp7
S'yama'
p8
aS'prakara\xe1\xb9\x87a'
p9
aa(lp10
S'sam\xc4\x81p'
p11
aasS'dcs_chunks'
p12
(lp13
g5
ag6
ag8
ag9
ag11
asS'sent_id'
p14
I22072
sS'cng'
p15
(lp16
(lp17
S'2'
p18
aS'71'
p19
aa(lp20
S'3'
p21
aS'31'
p22
aa(lp23
S'-190'
p24
aasS'sentence'
p25
S'atredaM yamaprakaraRaM samAptam   '
p26
sb.