(i__main__
DCS
p0
(dp1
S'lemmas'
p2
(lp3
(lp4
S'k\xe1\xb9\x9b'
p5
aa(lp6
S'prayatna'
p7
aa(lp8
S'rasa'
p9
aS'\xc5\x9b\xc4\x81stra'
p10
aa(lp11
S'vartman'
p12
aasS'dcs_chunks'
p13
(lp14
g5
ag7
ag9
ag10
ag12
asS'sent_id'
p15
I221734
sS'cng'
p16
(lp17
(lp18
S'-210'
p19
aa(lp20
S'89'
p21
aa(lp22
S'3'
p23
aS'151'
p24
aa(lp25
S'91'
p26
aasS'sentence'
p27
S'karaRIyaM prayatnena rasaSAstrasya vartmanA   '
p28
sb.