(i__main__
DCS
p0
(dp1
S'lemmas'
p2
(lp3
(lp4
S'khecara'
p5
aS'ca'
p6
aS'amara'
p7
aa(lp8
S'pravac'
p9
aa(lp10
S'dehada'
p11
aa(lp12
S'm\xe1\xb9\x9btyun\xc4\x81\xc5\x9bana'
p13
aasS'dcs_chunks'
p14
(lp15
g5
ag6
ag7
ag9
ag11
ag13
asS'sent_id'
p16
I22535
sS'cng'
p17
(lp18
(lp19
S'29'
p20
aS'2'
p21
aS'29'
p22
aa(lp23
S'-190'
p24
aa(lp25
S'29'
p26
aa(lp27
S'29'
p28
aasS'sentence'
p29
S'KecaraScAmaraH  prokto dehado mftyunASanaH    '
p30
sb.