(i__main__
DCS
p0
(dp1
S'lemmas'
p2
(lp3
(lp4
S'gulma'
p5
aS'\xc5\x9b\xc5\xabla'
p6
aS'\xc4\x81maya'
p7
aS'ghna'
p8
aS'ca'
p9
aa(lp10
S'netra'
p11
aS'do\xe1\xb9\xa3a'
p12
aS'nik\xe1\xb9\x9bntana'
p13
aasS'dcs_chunks'
p14
(lp15
g5
ag6
ag7
ag8
ag9
ag11
ag12
ag13
asS'sent_id'
p16
I22571
sS'cng'
p17
(lp18
(lp19
S'3'
p20
ag20
ag20
aS'29'
p21
aS'2'
p22
aa(lp23
g20
ag20
aS'29'
p24
aasS'sentence'
p25
S'gulmaSUlAmayaGnaSca netradozanikfntanaH    '
p26
sb.