(i__main__
DCS
p0
(dp1
S'lemmas'
p2
(lp3
(lp4
S'ghana'
p5
aa(lp6
S'snigdha'
p7
aa(lp8
S'm\xe1\xb9\x9bdu'
p9
aa(lp10
S'svaccha'
p11
aa(lp12
S'd\xc4\x81ha'
p13
aa(lp14
S'cheda'
p15
aa(lp16
S'sita'
p17
aa(lp18
S'guru'
p19
aasS'dcs_chunks'
p20
(lp21
g5
ag7
ag9
ag11
ag13
ag15
ag17
ag19
asS'sent_id'
p22
I226370
sS'cng'
p23
(lp24
(lp25
S'31'
p26
aa(lp27
S'31'
p28
aa(lp29
S'31'
p30
aa(lp31
S'31'
p32
aa(lp33
S'169'
p34
aa(lp35
S'169'
p36
aa(lp37
S'31'
p38
aa(lp39
S'31'
p40
aasS'sentence'
p41
S'GanaM snigDaM mfdu svacCaM dAhe Cede sitaM guru   '
p42
sb.