(i__main__
DCS
p0
(dp1
S'lemmas'
p2
(lp3
(lp4
S'n\xc4\x81n\xc4\x81'
p5
aS'var\xe1\xb9\x87a'
p6
aS'gu\xe1\xb9\x87a'
p7
aS'\xc4\x81\xe1\xb8\x8dhya'
p8
aa(lp9
S'vij\xc3\xb1\xc4\x81'
p10
aa(lp11
S'spha\xe1\xb9\xadika'
p12
aS'j\xc4\x81ti'
p13
aa(lp14
S'pr\xc4\x81j\xc3\xb1a'
p15
aasS'dcs_chunks'
p16
(lp17
g5
ag6
ag7
ag8
ag10
ag12
ag13
ag15
asS'sent_id'
p18
I22725
sS'cng'
p19
(lp20
(lp21
S'2'
p22
aS'3'
p23
ag23
aS'39'
p24
aa(lp25
S'-210'
p26
aa(lp27
g23
aS'40'
p28
aa(lp29
S'99'
p30
aasS'sentence'
p31
S'nAnAvarRaguRAQyA vijYeyAH  sPawikajAtayaH  prAjYEH    '
p32
sb.