(i__main__
DCS
p0
(dp1
S'lemmas'
p2
(lp3
(lp4
S'v\xc4\x81sudeva'
p5
aS'para'
p6
aa(lp7
S'j\xc3\xb1\xc4\x81na'
p8
aa(lp9
S'v\xc4\x81sudeva'
p10
aS'para'
p11
aa(lp12
S'tapas'
p13
aasS'dcs_chunks'
p14
(lp15
g5
ag6
ag8
ag10
ag11
ag13
asS'sent_id'
p16
I23001
sS'cng'
p17
(lp18
(lp19
S'3'
p20
aS'31'
p21
aa(lp22
S'31'
p23
aa(lp24
g20
aS'31'
p25
aa(lp26
S'31'
p27
aasS'sentence'
p28
S'vAsudevaparaM jYAnaM vAsudevaparaM tapaH    '
p29
sb.