(i__main__
DCS
p0
(dp1
S'lemmas'
p2
(lp3
(lp4
S's\xc5\xabta'
p5
aS'arka'
p6
aS'bhasman'
p7
aS'artha'
p8
aa(lp9
S'rasa'
p10
aS'bhasman'
p11
aS'artha'
p12
aa(lp13
S't\xc4\x81mra'
p14
aS'bhasman'
p15
aS'artha'
p16
aa(lp17
S'ca'
p18
aasS'dcs_chunks'
p19
(lp20
g5
ag6
ag7
ag8
ag10
ag11
ag12
ag14
ag15
ag16
ag18
asS'sent_id'
p21
I244099
sS'cng'
p22
(lp23
(lp24
S'3'
p25
ag25
ag25
aS'69'
p26
aa(lp27
g25
ag25
aS'69'
p28
aa(lp29
g25
ag25
aS'69'
p30
aa(lp31
S'2'
p32
aasS'sentence'
p33
S'sUtArkaBasmArTaM rasaBasmArTaM tAmraBasmArTaM ca   '
p34
sb.