(i__main__
DCS
p0
(dp1
S'lemmas'
p2
(lp3
(lp4
S'yath\xc4\x81'
p5
aS'vac'
p6
aa(lp7
S'vidh\xc4\x81na'
p8
aa(lp9
S'n\xc4\x81bhi'
p10
aS'm\xc4\x81tra'
p11
aa(lp12
S'jala'
p13
aa(lp14
S'k\xe1\xb9\xa3ip'
p15
aasS'dcs_chunks'
p16
(lp17
g5
ag6
ag8
ag10
ag11
ag13
ag15
asS'sent_id'
p18
I245695
sS'cng'
p19
(lp20
(lp21
S'2'
p22
aS'-190'
p23
aa(lp24
S'91'
p25
aa(lp26
S'3'
p27
aS'171'
p28
aa(lp29
S'171'
p30
aa(lp31
S'-23'
p32
aasS'sentence'
p33
S'yaToktena viDAnena nABimAtre jale kzipet   '
p34
sb.