(i__main__
DCS
p0
(dp1
S'lemmas'
p2
(lp3
(lp4
S'tatra'
p5
aa(lp6
S't\xc4\xabrtha'
p7
aa(lp8
S'n\xe1\xb9\x9bpa'
p9
aS'\xc5\x9bre\xe1\xb9\xa3\xe1\xb9\xadha'
p10
aa(lp11
S'sn\xc4\x81'
p12
aa(lp13
S'tad'
p14
aS'phala'
p15
aS'\xc4\x81p'
p16
aasS'dcs_chunks'
p17
(lp18
g5
ag7
ag9
ag10
ag12
ag14
ag15
ag16
asS'sent_id'
p19
I251602
sS'cng'
p20
(lp21
(lp22
S'2'
p23
aa(lp24
S'171'
p25
aa(lp26
S'3'
p27
aS'49'
p28
aa(lp29
S'-230'
p30
aa(lp31
S'71'
p32
aS'71'
p33
aS'-23'
p34
aasS'sentence'
p35
S'tatra tIrTe nfpaSrezWa snAtvA tatPalamApnuyAt   '
p36
sb.