(i__main__
DCS
p0
(dp1
S'lemmas'
p2
(lp3
(lp4
S'mata'
p5
aS'antara'
p6
aS'ah'
p7
aa(lp8
S'kharpara'
p9
aa(lp10
S'iti'
p11
aasS'dcs_chunks'
p12
(lp13
g5
ag6
ag7
ag9
ag11
asS'sent_id'
p14
I267106
sS'cng'
p15
(lp16
(lp17
S'3'
p18
aS'71'
p19
aS'-153'
p20
aa(lp21
S'169'
p22
aa(lp23
S'2'
p24
aasS'sentence'
p25
S'matAntaramAha Karpare iti   '
p26
sb.