(i__main__
DCS
p0
(dp1
S'lemmas'
p2
(lp3
(lp4
S'sarva'
p5
aa(lp6
S'br\xc4\x81hma\xe1\xb9\x87a'
p7
aa(lp8
S'vid'
p9
aa(lp10
S'v\xe1\xb9\x9btti'
p11
aS'up\xc4\x81ya'
p12
aa(lp13
S'yath\xc4\x81vidhi'
p14
aasS'dcs_chunks'
p15
(lp16
g5
ag7
ag9
ag11
ag12
ag14
asS'sent_id'
p17
I26962
sS'cng'
p18
(lp19
(lp20
S'159'
p21
aa(lp22
S'29'
p23
aa(lp24
S'-23'
p25
aa(lp26
S'3'
p27
aS'79'
p28
aa(lp29
S'2'
p30
aasS'sentence'
p31
S'sarvezAM brAhmaRo vidyAd vfttyupAyAn yaTAviDi   '
p32
sb.