(i__main__
DCS
p0
(dp1
S'lemmas'
p2
(lp3
(lp4
S'ni\xe1\xb9\xa3\xc4\x81da'
p5
aa(lp6
S'\xc5\x9b\xc5\xabdra'
p7
aS'kany\xc4\x81'
p8
aa(lp9
S'yad'
p10
aa(lp11
S'p\xc4\x81ra\xc5\x9bava'
p12
aa(lp13
S'vac'
p14
aasS'dcs_chunks'
p15
(lp16
g5
ag7
ag8
ag10
ag12
ag14
asS'sent_id'
p17
I26975
sS'cng'
p18
(lp19
(lp20
S'29'
p21
aa(lp22
S'3'
p23
aS'170'
p24
aa(lp25
S'29'
p26
aa(lp27
S'29'
p28
aa(lp29
S'-243'
p30
aasS'sentence'
p31
S'nizAdaH  SUdrakanyAyAM yaH  pAraSava ucyate   '
p32
sb.