(i__main__
DCS
p0
(dp1
S'lemmas'
p2
(lp3
(lp4
S'na'
p5
aS'artha'
p6
aS'd\xc5\xab\xe1\xb9\xa3a\xe1\xb9\x87a'
p7
aa(lp8
S'k\xe1\xb9\x9b'
p9
aasS'dcs_chunks'
p10
(lp11
g5
ag6
ag7
ag9
asS'sent_id'
p12
I274661
sS'cng'
p13
(lp14
(lp15
S'2'
p16
aS'3'
p17
aS'71'
p18
aa(lp19
S'-23'
p20
aasS'sentence'
p21
S'nArTadUzaRaM kuryAt   '
p22
sb.