(i__main__
DCS
p0
(dp1
S'lemmas'
p2
(lp3
(lp4
S'indriya'
p5
aa(lp6
S'tath\xc4\x81'
p7
aS'anya'
p8
aa(lp9
S'deva'
p10
aa(lp11
S'ca'
p12
aa(lp13
S'ga\xe1\xb9\x87a'
p14
aa(lp15
S'ca'
p16
aasS'dcs_chunks'
p17
(lp18
g5
ag7
ag8
ag10
ag12
ag14
ag16
asS'sent_id'
p19
I277073
sS'cng'
p20
(lp21
(lp22
S'181'
p23
aa(lp24
S'2'
p25
aS'179'
p26
aa(lp27
S'179'
p28
aa(lp29
g25
aa(lp30
S'179'
p31
aa(lp32
g25
aasS'sentence'
p33
S'indriyezu taTAnyezu devezu ca gaRezu ca   '
p34
sb.