(i__main__
DCS
p0
(dp1
S'lemmas'
p2
(lp3
(lp4
S'arv\xc4\x81c\xc4\xabna'
p5
aa(lp6
S'tu'
p7
aa(lp8
S'tad'
p9
aS'ardha'
p10
aa(lp11
S'car'
p12
aa(lp13
S'ravi'
p14
aS'ra\xc5\x9bmi'
p15
aasS'dcs_chunks'
p16
(lp17
g5
ag7
ag9
ag10
ag12
ag14
ag15
asS'sent_id'
p18
I279346
sS'cng'
p19
(lp20
(lp21
S'171'
p22
aa(lp23
S'2'
p24
aa(lp25
S'149'
p26
aS'171'
p27
aa(lp28
S'-19'
p29
aa(lp30
S'3'
p31
aS'39'
p32
aasS'sentence'
p33
S'arvAcIne tu tasyArDe caranti raviraSmayaH    '
p34
sb.