(i__main__
DCS
p0
(dp1
S'lemmas'
p2
(lp3
(lp4
S'itih\xc4\x81sa'
p5
aa(lp6
S'idam'
p7
aa(lp8
S'pu\xe1\xb9\x87ya'
p9
aa(lp10
S'dh\xc4\x81ray'
p11
aa(lp12
S'yad'
p13
aa(lp14
S'sam\xc4\x81hita'
p15
aasS'dcs_chunks'
p16
(lp17
g5
ag7
ag9
ag11
ag13
ag15
asS'sent_id'
p18
I28052
sS'cng'
p19
(lp20
(lp21
S'69'
p22
aa(lp23
S'69'
p24
aa(lp25
S'69'
p26
aa(lp27
S'-23'
p28
aa(lp29
S'29'
p30
aa(lp31
S'29'
p32
aasS'sentence'
p33
S'itihAsam imaM puRyaM DArayed yaH  samAhitaH    '
p34
sb.