(i__main__
DCS
p0
(dp1
S'lemmas'
p2
(lp3
(lp4
S'yad'
p5
aa(lp6
S'bhakta'
p7
aS'api'
p8
aa(lp9
S'loka'
p10
aS'idam'
p11
aa(lp12
S'putra'
p13
aS'd\xc4\x81ra'
p14
aS'g\xe1\xb9\x9bha'
p15
aS'\xc4\x81di'
p16
aasS'dcs_chunks'
p17
(lp18
g5
ag7
ag8
ag10
ag11
ag13
ag14
ag15
ag16
asS'sent_id'
p19
I283304
sS'cng'
p20
(lp21
(lp22
S'149'
p23
aa(lp24
S'29'
p25
aS'2'
p26
aa(lp27
S'169'
p28
aS'169'
p29
aa(lp30
S'3'
p31
ag31
ag31
aS'101'
p32
aasS'sentence'
p33
S"yasya Bakto'pi loke'smin putradAragfhAdiBiH    "
p34
sb.