(i__main__
DCS
p0
(dp1
S'lemmas'
p2
(lp3
(lp4
S'evam'
p5
aa(lp6
S'k\xe1\xb9\x9b'
p7
aa(lp8
S'phala'
p9
aS'ah'
p10
aa(lp11
S'y\xc4\x81j\xc3\xb1avalkya'
p12
aasS'dcs_chunks'
p13
(lp14
g5
ag7
ag9
ag10
ag12
asS'sent_id'
p15
I287393
sS'cng'
p16
(lp17
(lp18
S'2'
p19
aa(lp20
S'-10'
p21
aa(lp22
S'71'
p23
aS'-153'
p24
aa(lp25
S'29'
p26
aasS'sentence'
p27
S'evaM kurvataH  PalamAha yAjYavalkyaH    '
p28
sb.