(i__main__
DCS
p0
(dp1
S'lemmas'
p2
(lp3
(lp4
S'yad'
p5
aa(lp6
S'yad'
p7
aa(lp8
S'ca'
p9
aa(lp10
S'bh\xc5\xabta'
p11
aa(lp12
S'bhakti'
p13
aa(lp14
S'tvad'
p15
aa(lp16
S'parama'
p17
aS'\xe1\xb9\x9b\xe1\xb9\xa3i'
p18
aasS'dcs_chunks'
p19
(lp20
g5
ag7
ag9
ag11
ag13
ag15
ag17
ag18
asS'sent_id'
p21
I28978
sS'cng'
p22
(lp23
(lp24
S'181'
p25
aa(lp26
S'181'
p27
aa(lp28
S'2'
p29
aa(lp30
S'181'
p31
aa(lp32
S'90'
p33
aa(lp34
S'72'
p35
aa(lp36
S'3'
p37
aS'39'
p38
aasS'sentence'
p39
S'yezu yezu ca BUtezu BaktyA tvAM paramarzayaH    '
p40
sb.