(i__main__
DCS
p0
(dp1
S'lemmas'
p2
(lp3
(lp4
S'bubhuk\xe1\xb9\xa3u'
p5
aa(lp6
S'tu'
p7
aa(lp8
S'dvit\xc4\xabya'
p9
aa(lp10
S'p\xc5\xabr\xe1\xb9\x87\xc4\x81huti'
p11
aasS'dcs_chunks'
p12
(lp13
g5
ag7
ag9
ag11
asS'sent_id'
p14
I2931
sS'cng'
p15
(lp16
(lp17
S'149'
p18
aa(lp19
S'2'
p20
aa(lp21
S'30'
p22
aa(lp23
S'30'
p24
aasS'sentence'
p25
S'buBukzos tu dvitIyA pUrRAhutiH    '
p26
sb.