(i__main__
DCS
p0
(dp1
S'lemmas'
p2
(lp3
(lp4
S'dvit\xc4\xabya'
p5
aS'vy\xc4\x81khy\xc4\x81na'
p6
aS'pak\xe1\xb9\xa3a'
p7
aS'api'
p8
aS'ittham'
p9
aa(lp10
S'yuj'
p11
aasS'dcs_chunks'
p12
(lp13
g5
ag6
ag7
ag8
ag9
ag11
asS'sent_id'
p14
I309332
sS'cng'
p15
(lp16
(lp17
S'3'
p18
ag18
aS'169'
p19
aS'2'
p20
ag20
aa(lp21
S'-210'
p22
aasS'sentence'
p23
S"dvitIyavyAKyAnapakze'pItTaM yojanIyam   "
p24
sb.