(i__main__
DCS
p0
(dp1
S'lemmas'
p2
(lp3
(lp4
S't\xe1\xb9\x9bt\xc4\xabya'
p5
aa(lp6
S'garbha'
p7
aS'm\xc4\x81sa'
p8
aa(lp9
S's\xc4\xabmanta'
p10
aa(lp11
S'k\xc4\x81ray'
p12
aasS'dcs_chunks'
p13
(lp14
g5
ag7
ag8
ag10
ag12
asS'sent_id'
p15
I310061
sS'cng'
p16
(lp17
(lp18
S'169'
p19
aa(lp20
S'3'
p21
aS'169'
p22
aa(lp23
S'69'
p24
aa(lp25
S'-13'
p26
aasS'sentence'
p27
S'tftIye garBamAse sImantaM kArayate   '
p28
sb.