(i__main__
DCS
p0
(dp1
S'lemmas'
p2
(lp3
(lp4
S'vy\xc4\x81ghra'
p5
aa(lp6
S'pa\xc5\x9bu'
p7
aS'iva'
p8
aS'\xc4\x81d\xc4\x81'
p9
aa(lp10
S'm\xe1\xb9\x9btyu'
p11
aS'\xc4\x81d\xc4\x81'
p12
aa(lp13
S'gam'
p14
aasS'dcs_chunks'
p15
(lp16
g5
ag7
ag8
ag9
ag11
ag12
ag14
asS'sent_id'
p17
I31011
sS'cng'
p18
(lp19
(lp20
S'29'
p21
aa(lp22
S'69'
p23
aS'2'
p24
aS'-230'
p25
aa(lp26
S'29'
p27
aS'-230'
p28
aa(lp29
S'-13'
p30
aasS'sentence'
p31
S'vyAGraH  paSumivAdAya mftyurAdAya gacCati   '
p32
sb.