(i__main__
DCS
p0
(dp1
S'lemmas'
p2
(lp3
(lp4
S'sarva'
p5
aS'indriya'
p6
aS'gam'
p7
aa(lp8
S'tri'
p9
aS'api'
p10
aa(lp11
S'k\xc4\x81la'
p12
aa(lp13
S'sarva'
p14
aasS'dcs_chunks'
p15
(lp16
g5
ag6
ag7
ag9
ag10
ag12
ag14
asS'sent_id'
p17
I311292
sS'cng'
p18
(lp19
(lp20
S'3'
p21
ag21
aS'-190'
p22
aa(lp23
S'179'
p24
aS'2'
p25
aa(lp26
S'179'
p27
aa(lp28
S'31'
p29
aasS'sentence'
p30
S'sarvendriyagataM trizvapi kAlezu sarvam   '
p31
sb.