(i__main__
DCS
p0
(dp1
S'lemmas'
p2
(lp3
(lp4
S'viji'
p5
aS'idam'
p6
aa(lp7
S'mah\xc4\xab'
p8
aa(lp9
S'k\xe1\xb9\x9btsna'
p10
aa(lp11
S'k\xe1\xb9\x9b\xe1\xb9\xa3\xe1\xb9\x87a'
p12
aS'b\xc4\x81hu'
p13
aS'bala'
p14
aS'\xc4\x81\xc5\x9braya'
p15
aasS'dcs_chunks'
p16
(lp17
g5
ag6
ag8
ag10
ag12
ag13
ag14
ag15
asS'sent_id'
p18
I312489
sS'cng'
p19
(lp20
(lp21
S'-190'
p22
aS'30'
p23
aa(lp24
S'30'
p25
aa(lp26
S'30'
p27
aa(lp28
S'3'
p29
ag29
ag29
aS'129'
p30
aasS'sentence'
p31
S'vijiteyaM mahI kftsnA kfzRabAhubalASrayAt   '
p32
sb.