(i__main__
DCS
p0
(dp1
S'lemmas'
p2
(lp3
(lp4
S'para'
p5
aS'r\xc4\x81\xe1\xb9\xa3\xe1\xb9\xadra'
p6
aS'a\xe1\xb9\xadav\xc4\xab'
p7
aS'stha'
p8
aa(lp9
S'yath\xc4\x81'
p10
aa(lp11
S'sva'
p12
aS'vi\xe1\xb9\xa3aya'
p13
aa(lp14
S'tath\xc4\x81'
p15
aasS'dcs_chunks'
p16
(lp17
g5
ag6
ag7
ag8
ag10
ag12
ag13
ag15
asS'sent_id'
p18
I318915
sS'cng'
p19
(lp20
(lp21
S'3'
p22
ag22
ag22
aS'179'
p23
aa(lp24
S'2'
p25
aa(lp26
g22
aS'169'
p27
aa(lp28
g25
aasS'sentence'
p29
S'pararAzwrAwavIsTezu yaTA svavizaye taTA   '
p30
sb.