(i__main__
DCS
p0
(dp1
S'lemmas'
p2
(lp3
(lp4
S'tad'
p5
aa(lp6
S'tad'
p7
aa(lp8
S'tu'
p9
aa(lp10
S'bh\xc4\x81va'
p11
aa(lp12
S'm\xe1\xb9\x9bga'
p13
aS'hi\xe1\xb9\x83s\xc4\x81'
p14
aS'\xc4\x81tman'
p15
aS'tad\xc4\x81'
p16
aasS'dcs_chunks'
p17
(lp18
g5
ag7
ag9
ag11
ag13
ag14
ag15
ag16
asS'sent_id'
p19
I332090
sS'cng'
p20
(lp21
(lp22
S'149'
p23
aa(lp24
S'89'
p25
aa(lp26
S'2'
p27
aa(lp28
S'89'
p29
aa(lp30
S'3'
p31
ag31
aS'149'
p32
ag27
aasS'sentence'
p33
S'tasya tena tu BAvena mfgahiMsAtmanastadA   '
p34
sb.