(i__main__
DCS
p0
(dp1
S'lemmas'
p2
(lp3
(lp4
S'\xc5\x9bru'
p5
aS'etad'
p6
aa(lp7
S'\xc4\x81khy\xc4\x81na'
p8
aS'vara'
p9
aa(lp10
S'dharmar\xc4\x81j'
p11
aa(lp12
S'janamejaya'
p13
aasS'dcs_chunks'
p14
(lp15
g5
ag6
ag8
ag9
ag11
ag13
asS'sent_id'
p16
I337900
sS'cng'
p17
(lp18
(lp19
S'-230'
p20
aS'71'
p21
aa(lp22
S'3'
p23
aS'71'
p24
aa(lp25
S'29'
p26
aa(lp27
S'49'
p28
aasS'sentence'
p29
S'SrutvEtad AKyAnavaraM DarmarAq janamejaya   '
p30
sb.