(i__main__
DCS
p0
(dp1
S'lemmas'
p2
(lp3
(lp4
S'tatra'
p5
aa(lp6
S'p\xc5\xabrva'
p7
aa(lp8
S'pak\xe1\xb9\xa3a'
p9
aS'traya'
p10
aa(lp11
S'pradh\xc4\x81na'
p12
aa(lp13
S'na'
p14
aa(lp15
S'sidh'
p16
aasS'dcs_chunks'
p17
(lp18
g5
ag7
ag9
ag10
ag12
ag14
ag16
asS'sent_id'
p19
I340062
sS'cng'
p20
(lp21
(lp22
S'2'
p23
aa(lp24
S'171'
p25
aa(lp26
S'3'
p27
aS'171'
p28
aa(lp29
S'31'
p30
aa(lp31
g23
aa(lp32
S'-13'
p33
aasS'sentence'
p34
S'tatra pUrvasmin pakzatraye praDAnaM na siDyati   '
p35
sb.