(i__main__
DCS
p0
(dp1
S'lemmas'
p2
(lp3
(lp4
S'tad'
p5
aa(lp6
S'\xc5\x9bar\xc4\xabra'
p7
aa(lp8
S'n\xc4\x81da'
p9
aa(lp10
S'ca'
p11
aa(lp12
S'bindut\xc4\x81'
p13
aa(lp14
S'eva'
p15
aa(lp16
S'gam'
p17
aasS'dcs_chunks'
p18
(lp19
g5
ag7
ag9
ag11
ag13
ag15
ag17
asS'sent_id'
p20
I35136
sS'cng'
p21
(lp22
(lp23
S'150'
p24
aa(lp25
S'171'
p26
aa(lp27
S'29'
p28
aa(lp29
S'2'
p30
aa(lp31
S'70'
p32
aa(lp33
g30
aa(lp34
S'-13'
p35
aasS'sentence'
p36
S'tasyAH  SarIre nAdaS ca bindutAm eva gacCati   '
p37
sb.