(i__main__
DCS
p0
(dp1
S'lemmas'
p2
(lp3
(lp4
S'tad'
p5
aa(lp6
S'de\xc5\x9ba'
p7
aS'antara'
p8
aa(lp9
S'y\xc4\x81'
p10
aa(lp11
S't\xc4\x81ta'
p12
aa(lp13
S'ca'
p14
aa(lp15
S'trida\xc5\x9b\xc4\x81laya'
p16
aasS'dcs_chunks'
p17
(lp18
g5
ag7
ag8
ag10
ag12
ag14
ag16
asS'sent_id'
p19
I358119
sS'cng'
p20
(lp21
(lp22
S'169'
p23
aa(lp24
S'3'
p25
aS'69'
p26
aa(lp27
S'-190'
p28
aa(lp29
S'169'
p30
aa(lp31
S'2'
p32
aa(lp33
S'69'
p34
aasS'sentence'
p35
S'tasmin deSAntaraM yAte tAte ca tridaSAlayam   '
p36
sb.