(i__main__
DCS
p0
(dp1
S'lemmas'
p2
(lp3
(lp4
S'mah\xc4\x81sena'
p5
aa(lp6
S'bhavana'
p7
aa(lp8
S'paratantra'
p9
aa(lp10
S'sth\xc4\x81'
p11
aasS'dcs_chunks'
p12
(lp13
g5
ag7
ag9
ag11
asS'sent_id'
p14
I358758
sS'cng'
p15
(lp16
(lp17
S'149'
p18
aa(lp19
S'171'
p20
aa(lp21
S'149'
p22
aa(lp23
S'-10'
p24
aasS'sentence'
p25
S'mahAsenasya Bavane paratantrasya tizWataH    '
p26
sb.