(i__main__
DCS
p0
(dp1
S'lemmas'
p2
(lp3
(lp4
S'divya'
p5
aS'prabh\xc4\x81va'
p6
aS'h\xc4\x81'
p7
aa(lp8
S'tad'
p9
aa(lp10
S'katham'
p11
aa(lp12
S'k\xe1\xb9\x9b'
p13
aa(lp14
S'anyath\xc4\x81'
p15
aasS'dcs_chunks'
p16
(lp17
g5
ag6
ag7
ag9
ag11
ag13
ag15
asS'sent_id'
p18
I365075
sS'cng'
p19
(lp20
(lp21
S'3'
p22
ag22
aS'-190'
p23
aa(lp24
S'31'
p25
aa(lp26
S'2'
p27
aa(lp28
S'-210'
p29
aa(lp30
g27
aasS'sentence'
p31
S'divyapraBAvahInena tat kaTaM kAryam anyaTA   '
p32
sb.