(i__main__
DCS
p0
(dp1
S'lemmas'
p2
(lp3
(lp4
S't\xc4\xabrtha'
p5
aS'y\xc4\x81tr\xc4\x81'
p6
aS'prasa\xe1\xb9\x85ga'
p7
aa(lp8
S'sv\xc4\x81gata'
p9
aa(lp10
S's\xc5\xabta'
p11
aS'br\xc5\xab'
p12
aasS'dcs_chunks'
p13
(lp14
g5
ag6
ag7
ag9
ag11
ag12
asS'sent_id'
p15
I368100
sS'cng'
p16
(lp17
(lp18
S'3'
p19
ag19
aS'89'
p20
aa(lp21
S'71'
p22
aa(lp23
S'69'
p24
aS'-49'
p25
aasS'sentence'
p26
S'tIrTayAtrAprasaNgena svAgataM sUtamabruvan   '
p27
sb.