(i__main__
DCS
p0
(dp1
S'lemmas'
p2
(lp3
(lp4
S'tad'
p5
aa(lp6
S'pattra'
p7
aa(lp8
S'upadh\xc4\x81'
p9
aS'du\xe1\xb9\xa3'
p10
aa(lp11
S's\xc4\x81k\xe1\xb9\xa3in'
p12
aS'lekhaka'
p13
aS'k\xc4\x81raka'
p14
aasS'dcs_chunks'
p15
(lp16
g5
ag7
ag9
ag10
ag12
ag13
ag14
asS'sent_id'
p17
I368690
sS'cng'
p18
(lp19
(lp20
S'31'
p21
aa(lp22
S'31'
p23
aa(lp24
S'3'
p25
aS'-190'
p26
aa(lp27
g25
ag25
aS'99'
p28
aasS'sentence'
p29
S'tat patram upaDAduzwEH  sAkzileKakakArakEH    '
p30
sb.