(i__main__
DCS
p0
(dp1
S'lemmas'
p2
(lp3
(lp4
S'na'
p5
aa(lp6
S'dharma'
p7
aS'\xc5\x9b\xc4\x81stra'
p8
aS'anya'
p9
aa(lp10
S'parvan'
p11
aS'etad'
p12
aa(lp13
S'varjay'
p14
aasS'dcs_chunks'
p15
(lp16
g5
ag7
ag8
ag9
ag11
ag12
ag14
asS'sent_id'
p17
I371692
sS'cng'
p18
(lp19
(lp20
S'2'
p21
aa(lp22
S'3'
p23
aS'181'
p24
aS'181'
p25
aa(lp26
S'171'
p27
aS'81'
p28
aa(lp29
S'-23'
p30
aasS'sentence'
p31
S'na DarmaSAstrezvanyezu parvaRyetAni varjayet   '
p32
sb.