(i__main__
DCS
p0
(dp1
S'lemmas'
p2
(lp3
(lp4
S'samyak'
p5
aS'k\xc4\x81nta'
p6
aS'maya'
p7
aa(lp8
S'p\xc4\x81tra'
p9
aa(lp10
S'dh\xc4\x81tr\xc4\xab'
p11
aS'c\xc5\xabr\xe1\xb9\x87a'
p12
aa(lp13
S'\xc5\x9biva'
p14
aS'ambu'
p15
aasS'dcs_chunks'
p16
(lp17
g5
ag6
ag7
ag9
ag11
ag12
ag14
ag15
asS'sent_id'
p18
I37580
sS'cng'
p19
(lp20
(lp21
S'2'
p22
aS'3'
p23
aS'171'
p24
aa(lp25
S'171'
p26
aa(lp27
g23
aS'71'
p28
aa(lp29
g23
aS'91'
p30
aasS'sentence'
p31
S'samyakkAntamaye pAtre DAtrIcUrRaM SivAmbunA   '
p32
sb.