(i__main__
DCS
p0
(dp1
S'lemmas'
p2
(lp3
(lp4
S'sama'
p5
aa(lp6
S'sarva'
p7
aa(lp8
S'bh\xc5\xabta'
p9
aa(lp10
S'sth\xc4\x81'
p11
aa(lp12
S'parame\xc5\x9bvara'
p13
aasS'dcs_chunks'
p14
(lp15
g5
ag7
ag9
ag11
ag13
asS'sent_id'
p16
I378790
sS'cng'
p17
(lp18
(lp19
S'69'
p20
aa(lp21
S'181'
p22
aa(lp23
S'181'
p24
aa(lp25
S'-10'
p26
aa(lp27
S'69'
p28
aasS'sentence'
p29
S'samaM sarvezu BUtezu tizWantaM parameSvaram   '
p30
sb.