(i__main__
DCS
p0
(dp1
S'lemmas'
p2
(lp3
(lp4
S'etad'
p5
aa(lp6
S'eva'
p7
aa(lp8
S'k\xc4\x81la'
p9
aa(lp10
S'tu'
p11
aa(lp12
S'p\xc4\x81\xe1\xb9\x87\xe1\xb8\x8dava'
p13
aa(lp14
S'k\xe1\xb9\x9b\xe1\xb9\xa3\xe1\xb9\x87a'
p15
aS's\xc4\x81rathi'
p16
aasS'dcs_chunks'
p17
(lp18
g5
ag7
ag9
ag11
ag13
ag15
ag16
asS'sent_id'
p19
I384443
sS'cng'
p20
(lp21
(lp22
S'169'
p23
aa(lp24
S'2'
p25
aa(lp26
S'169'
p27
aa(lp28
g25
aa(lp29
S'29'
p30
aa(lp31
S'3'
p32
aS'29'
p33
aasS'sentence'
p34
S'etasminn eva kAle tu pARqavaH  kfzRasAraTiH    '
p35
sb.