(i__main__
DCS
p0
(dp1
S'lemmas'
p2
(lp3
(lp4
S'janman'
p5
aS'\xc5\x9bayy\xc4\x81'
p6
aS'gam'
p7
aa(lp8
S'deva'
p9
aa(lp10
S'k\xc4\x81rttikeya'
p11
aa(lp12
S'iva'
p13
aa(lp14
S'prabhu'
p15
aasS'dcs_chunks'
p16
(lp17
g5
ag6
ag7
ag9
ag11
ag13
ag15
asS'sent_id'
p18
I387528
sS'cng'
p19
(lp20
(lp21
S'3'
p22
ag22
aS'-190'
p23
aa(lp24
S'69'
p25
aa(lp26
S'69'
p27
aa(lp28
S'2'
p29
aa(lp30
S'69'
p31
aasS'sentence'
p32
S'janmaSayyAgataM devaM kArttikeyam iva praBum   '
p33
sb.