(i__main__
DCS
p0
(dp1
S'lemmas'
p2
(lp3
(lp4
S'na'
p5
aa(lp6
S'tu'
p7
aS'eva'
p8
aS'mad'
p9
aa(lp10
S'na'
p11
aa(lp12
S'gam'
p13
aa(lp14
S'tad'
p15
aa(lp16
S'madhya'
p17
aa(lp18
S'\xc5\x9b\xc5\xabra'
p19
aa(lp20
S'tad'
p21
aa(lp22
S'tath\xc4\x81'
p23
aS'mad'
p24
aa(lp25
S'br\xc5\xab'
p26
aasS'dcs_chunks'
p27
(lp28
g5
ag7
ag8
ag9
ag11
ag13
ag15
ag17
ag19
ag21
ag23
ag24
ag26
asS'sent_id'
p29
I387768
sS'cng'
p30
(lp31
(lp32
S'2'
p33
aa(lp34
g33
ag33
aS'32'
p35
aa(lp36
g33
aa(lp37
S'-51'
p38
aa(lp39
S'159'
p40
aa(lp41
S'171'
p42
aa(lp43
S'159'
p44
aa(lp45
S'71'
p46
aa(lp47
g33
aS'32'
p48
aa(lp49
S'-11'
p50
aasS'sentence'
p51
S'na tvevAhaM na gamizyAmi tezAM maDye SUrARAM tat taTAhaM bravImi   '
p52
sb.