(i__main__
DCS
p0
(dp1
S'lemmas'
p2
(lp3
(lp4
S'n\xc4\x81man'
p5
aS'tu'
p6
aa(lp7
S'sam\xc4\x81khy\xc4\x81'
p8
aa(lp9
S'n\xc4\x81rada'
p10
aa(lp11
S'mah\xc4\x81tman'
p12
aasS'dcs_chunks'
p13
(lp14
g5
ag6
ag8
ag10
ag12
asS'sent_id'
p15
I38838
sS'cng'
p16
(lp17
(lp18
S'101'
p19
aS'2'
p20
aa(lp21
S'-190'
p22
aa(lp23
S'89'
p24
aa(lp25
S'89'
p26
aasS'sentence'
p27
S'nAmaBistu samAKyAtA nAradena mahAtmanA   '
p28
sb.