(i__main__
DCS
p0
(dp1
S'lemmas'
p2
(lp3
(lp4
S'dro\xe1\xb9\x87a'
p5
aa(lp6
S'saha'
p7
aS'putra'
p8
aa(lp9
S'v\xc4\xabra'
p10
aa(lp11
S'yadi'
p12
aa(lp13
S'man'
p14
aasS'dcs_chunks'
p15
(lp16
g5
ag7
ag8
ag10
ag12
ag14
asS'sent_id'
p17
I391861
sS'cng'
p18
(lp19
(lp20
S'89'
p21
aa(lp22
S'2'
p23
aS'89'
p24
aa(lp25
S'89'
p26
aa(lp27
g23
aa(lp28
S'-12'
p29
aasS'sentence'
p30
S'droRena sahaputreRa vIreRa yadi manyase   '
p31
sb.