(i__main__
DCS
p0
(dp1
S'lemmas'
p2
(lp3
(lp4
S'sarva'
p5
aa(lp6
S'manas'
p7
aa(lp8
S'sad\xc4\x81'
p9
aS'avasth\xc4\x81'
p10
aa(lp11
S'j\xc3\xb1\xc4\x81'
p12
aa(lp13
S'\xc5\x9bubha'
p14
aS'a\xc5\x9bubha'
p15
aa(lp16
S'ca'
p17
aa(lp18
S'bh\xc5\xabtan\xc4\x81tha'
p19
aasS'dcs_chunks'
p20
(lp21
g5
ag7
ag9
ag10
ag12
ag14
ag15
ag17
ag19
asS'sent_id'
p22
I39608
sS'cng'
p23
(lp24
(lp25
S'159'
p26
aa(lp27
S'171'
p28
aa(lp29
S'2'
p30
aS'-10'
p31
aa(lp32
S'-10'
p33
aa(lp34
S'71'
p35
aS'71'
p36
aa(lp37
g30
aa(lp38
S'29'
p39
aasS'sentence'
p40
S'sarvezAM manasi sadAvatizWamAno jAnAnaH  SuBamaSuBaM ca BUtanATaH    '
p41
sb.