(i__main__
DCS
p0
(dp1
S'lemmas'
p2
(lp3
(lp4
S'\xc4\x81tman'
p5
aS'artha'
p6
aa(lp7
S'yudh'
p8
aS'tad'
p9
aa(lp10
S'samartha'
p11
aa(lp12
S'p\xc4\x81\xe1\xb9\x87\xe1\xb8\x8du'
p13
aS'nandana'
p14
aasS'dcs_chunks'
p15
(lp16
g5
ag6
ag8
ag9
ag11
ag13
ag14
asS'sent_id'
p17
I401858
sS'cng'
p18
(lp19
(lp20
S'3'
p21
aS'69'
p22
aa(lp23
S'-10'
p24
aS'39'
p25
aa(lp26
S'39'
p27
aa(lp28
g21
aS'39'
p29
aasS'sentence'
p30
S'AtmArTaM yuDyamAnAste samarTAH  pARqunandanAH    '
p31
sb.