(i__main__
DCS
p0
(dp1
S'lemmas'
p2
(lp3
(lp4
S'atha'
p5
aa(lp6
S'v\xe1\xb9\x9bt'
p7
aa(lp8
S'viv\xc4\x81ha'
p9
aa(lp10
S'tu'
p11
aa(lp12
S'bhava'
p13
aS'amita'
p14
aS'tejas'
p15
aasS'dcs_chunks'
p16
(lp17
g5
ag7
ag9
ag11
ag13
ag14
ag15
asS'sent_id'
p18
I40982
sS'cng'
p19
(lp20
(lp21
S'2'
p22
aa(lp23
S'-190'
p24
aa(lp25
S'169'
p26
aa(lp27
g22
aa(lp28
S'149'
p29
aS'3'
p30
aS'149'
p31
aasS'sentence'
p32
S'aTa vftte vivAhe tu BavasyAmitatejasaH    '
p33
sb.