(i__main__
DCS
p0
(dp1
S'lemmas'
p2
(lp3
(lp4
S'na'
p5
aa(lp6
S'tad'
p7
aa(lp8
S'labh'
p9
aa(lp10
S'punar'
p11
aa(lp12
S'j\xc4\x81tu'
p13
aa(lp14
S'mad'
p15
aa(lp16
S'j\xc4\xabv'
p17
aa(lp18
S'ke\xc5\x9bava'
p19
aasS'dcs_chunks'
p20
(lp21
g5
ag7
ag9
ag11
ag13
ag15
ag17
ag19
asS'sent_id'
p22
I410532
sS'cng'
p23
(lp24
(lp25
S'2'
p26
aa(lp27
S'29'
p28
aa(lp29
S'-210'
p30
aa(lp31
g26
aa(lp32
g26
aa(lp33
S'172'
p34
aa(lp35
S'-10'
p36
aa(lp37
S'49'
p38
aasS'sentence'
p39
S'na sa laByaH  punar jAtu mayi jIvati keSava   '
p40
sb.