(i__main__
DCS
p0
(dp1
S'lemmas'
p2
(lp3
(lp4
S'vadha'
p5
aS'\xc4\xabpsu'
p6
aS'n\xc4\x81ga'
p7
aS'n\xc4\x81ga'
p8
aa(lp9
S'mukha'
p10
aa(lp11
S'atha'
p12
aa(lp13
S'pra\xe1\xb9\x87ava'
p14
aa(lp15
S'nyas'
p16
aasS'dcs_chunks'
p17
(lp18
g5
ag6
ag7
ag8
ag10
ag12
ag14
ag16
asS'sent_id'
p19
I417106
sS'cng'
p20
(lp21
(lp22
S'3'
p23
aS'29'
p24
ag23
aS'159'
p25
aa(lp26
S'171'
p27
aa(lp28
S'2'
p29
aa(lp30
S'69'
p31
aa(lp32
S'-23'
p33
aasS'sentence'
p34
S"vaDepsurnAganAgAnAM muKe 'Ta praRavaM nyaset   "
p35
sb.