(i__main__
DCS
p0
(dp1
S'lemmas'
p2
(lp3
(lp4
S'sthala'
p5
aa(lp6
S'gam'
p7
aa(lp8
S'tvad'
p9
aa(lp10
S'ka'
p11
aa(lp12
S'vidhi'
p13
aasS'dcs_chunks'
p14
(lp15
g5
ag7
ag9
ag11
ag13
asS'sent_id'
p16
I422956
sS'cng'
p17
(lp18
(lp19
S'171'
p20
aa(lp21
S'-10'
p22
aa(lp23
S'152'
p24
aa(lp25
S'29'
p26
aa(lp27
S'29'
p28
aasS'sentence'
p29
S'sTale gacCatas te ko viDiH    '
p30
sb.