(i__main__
DCS
p0
(dp1
S'lemmas'
p2
(lp3
(lp4
S'gam'
p5
aa(lp6
S'tad'
p7
aa(lp8
S'sarva'
p9
aa(lp10
S'k\xc4\x81\xc5\x9byapa'
p11
aS'\xc4\x81tmaja'
p12
aa(lp13
S'dvija'
p14
aasS'dcs_chunks'
p15
(lp16
g5
ag7
ag9
ag11
ag12
ag14
asS'sent_id'
p17
I43110
sS'cng'
p18
(lp19
(lp20
S'-190'
p21
aa(lp22
S'180'
p23
aa(lp24
S'180'
p25
aa(lp26
S'149'
p27
aS'29'
p28
aa(lp29
S'29'
p30
aasS'sentence'
p31
S'gatAsu tAsu sarvAsu kASyapasyAtmajo dvijaH    '
p32
sb.