(i__main__
DCS
p0
(dp1
S'lemmas'
p2
(lp3
(lp4
S'manas'
p5
aS'eva'
p6
aa(lp7
S'prad\xc4\xabpa'
p8
aa(lp9
S'mahant'
p10
aa(lp11
S'\xc4\x81tman'
p12
aa(lp13
S'd\xe1\xb9\x9b\xc5\x9b'
p14
aasS'dcs_chunks'
p15
(lp16
g5
ag6
ag8
ag10
ag12
ag14
asS'sent_id'
p17
I432737
sS'cng'
p18
(lp19
(lp20
S'91'
p21
aS'2'
p22
aa(lp23
S'89'
p24
aa(lp25
S'29'
p26
aa(lp27
S'169'
p28
aa(lp29
S'-243'
p30
aasS'sentence'
p31
S'manasEva pradIpena mahAn Atmani dfSyate   '
p32
sb.