(i__main__
DCS
p0
(dp1
S'lemmas'
p2
(lp3
(lp4
S'tri'
p5
aa(lp6
S'loka'
p7
aa(lp8
S'v\xc4\x81'
p9
aa(lp10
S'r\xc4\x81ma'
p11
aa(lp12
S'na'
p13
aa(lp14
S'bh\xc5\xab'
p15
aa(lp16
S'sad\xe1\xb9\x9b\xc5\x9ba'
p17
aa(lp18
S'tvad'
p19
aasS'dcs_chunks'
p20
(lp21
g5
ag7
ag9
ag11
ag13
ag15
ag17
ag19
asS'sent_id'
p22
I43773
sS'cng'
p23
(lp24
(lp25
S'179'
p26
aa(lp27
S'179'
p28
aa(lp29
S'2'
p30
aa(lp31
S'49'
p32
aa(lp33
g30
aa(lp34
S'-23'
p35
aa(lp36
S'29'
p37
aa(lp38
S'152'
p39
aasS'sentence'
p40
S'trizu lokezu vA rAma na Bavet sadfSas tava   '
p41
sb.