(i__main__
DCS
p0
(dp1
S'lemmas'
p2
(lp3
(lp4
S'kuja'
p5
aa(lp6
S'v\xc4\x81'
p7
aa(lp8
S'\xc5\x9baniv\xc4\x81ra'
p9
aa(lp10
S'v\xc4\x81'
p11
aa(lp12
S'prathama'
p13
aa(lp14
S'gamana'
p15
aa(lp16
S'car'
p17
aasS'dcs_chunks'
p18
(lp19
g5
ag7
ag9
ag11
ag13
ag15
ag17
asS'sent_id'
p20
I5283
sS'cng'
p21
(lp22
(lp23
S'169'
p24
aa(lp25
S'2'
p26
aa(lp27
S'169'
p28
aa(lp29
g26
aa(lp30
S'169'
p31
aa(lp32
S'71'
p33
aa(lp34
S'-23'
p35
aasS'sentence'
p36
S'kuje vA SanivAre vA praTame gamanaM caret   '
p37
sb.