(i__main__
DCS
p0
(dp1
S'lemmas'
p2
(lp3
(lp4
S'j\xc4\xabm\xc5\xabta'
p5
aa(lp6
S'\xc5\x9buci'
p7
aS'r\xc5\xabpa'
p8
aa(lp9
S'as'
p10
aa(lp11
S'kara'
p12
aa(lp13
S'p\xc4\x81\xe1\xb9\xadala'
p14
aS'bh\xc4\x81sura'
p15
aasS'dcs_chunks'
p16
(lp17
g5
ag7
ag8
ag10
ag12
ag14
ag15
asS'sent_id'
p18
I54
sS'cng'
p19
(lp20
(lp21
S'169'
p22
aa(lp23
S'3'
p24
aS'31'
p25
aa(lp26
S'-23'
p27
aa(lp28
S'169'
p29
aa(lp30
g24
aS'31'
p31
aasS'sentence'
p32
S'jImUte SucirUpaM syAt kare pAwalaBAsuram   '
p33
sb.