(i__main__
DCS
p0
(dp1
S'lemmas'
p2
(lp3
(lp4
S's\xc4\x81dh\xc4\x81ra\xe1\xb9\x87a'
p5
aa(lp6
S'iti'
p7
aa(lp8
S's\xc4\x81dh\xc4\x81ra\xe1\xb9\x87a'
p9
aS'k\xc4\x81rya'
p10
aS'yogitva'
p11
aasS'dcs_chunks'
p12
(lp13
g5
ag7
ag9
ag10
ag11
asS'sent_id'
p14
I60890
sS'cng'
p15
(lp16
(lp17
S'31'
p18
aa(lp19
S'2'
p20
aa(lp21
S'3'
p22
ag22
aS'31'
p23
aasS'sentence'
p24
S'sADAraRam iti sADAraRakAryayogitvam   '
p25
sb.