(i__main__
DCS
p0
(dp1
S'lemmas'
p2
(lp3
(lp4
S'payas'
p5
aS'anup\xc4\x81na'
p6
aS'tad'
p7
aa(lp8
S'\xc5\x9b\xc4\xabghra'
p9
aa(lp10
S'k\xe1\xb9\x9b'
p11
aa(lp12
S'v\xe1\xb9\x9b\xe1\xb9\xa3at\xc4\x81'
p13
aa(lp14
S'para'
p15
aasS'dcs_chunks'
p16
(lp17
g5
ag6
ag7
ag9
ag11
ag13
ag15
asS'sent_id'
p18
I64620
sS'cng'
p19
(lp20
(lp21
S'3'
p22
aS'40'
p23
aS'40'
p24
aa(lp25
S'71'
p26
aa(lp27
S'-19'
p28
aa(lp29
S'70'
p30
aa(lp31
S'70'
p32
aasS'sentence'
p33
S"payo'nupAnAstAH  SIGraM kurvanti vfzatAM parAm   "
p34
sb.