(i__main__
DCS
p0
(dp1
S'lemmas'
p2
(lp3
(lp4
S'm\xc4\x81nasa'
p5
aa(lp6
S'j\xc3\xb1\xc4\x81na'
p7
aS'vij\xc3\xb1\xc4\x81na'
p8
aS'dhairya'
p9
aS'sm\xe1\xb9\x9bti'
p10
aS'sam\xc4\x81dhi'
p11
aasS'dcs_chunks'
p12
(lp13
g5
ag7
ag8
ag9
ag10
ag11
asS'sent_id'
p14
I8818
sS'cng'
p15
(lp16
(lp17
S'29'
p18
aa(lp19
S'3'
p20
ag20
ag20
ag20
aS'99'
p21
aasS'sentence'
p22
S'mAnaso jYAnavijYAnaDEryasmftisamADiBiH    '
p23
sb.