(i__main__
DCS
p0
(dp1
S'lemmas'
p2
(lp3
(lp4
S'sama'
p5
aS'a\xe1\xb9\x83\xc5\x9ba'
p6
aa(lp7
S'bhak\xe1\xb9\xa3a\xe1\xb9\x87a'
p8
aa(lp9
S'heman'
p10
aa(lp11
S'\xc5\x9budh'
p12
aS's\xc5\xabta'
p13
aa(lp14
S'k\xc4\x81ray'
p15
aasS'dcs_chunks'
p16
(lp17
g5
ag6
ag8
ag10
ag12
ag13
ag15
asS'sent_id'
p18
I89012
sS'cng'
p19
(lp20
(lp21
S'3'
p22
aS'71'
p23
aa(lp24
S'71'
p25
aa(lp26
S'171'
p27
aa(lp28
S'-190'
p29
aS'89'
p30
aa(lp31
S'-23'
p32
aasS'sentence'
p33
S'samAMSaM BakzaRaM hemni SudDasUtena kArayet   '
p34
sb.