(i__main__
DCS
p0
(dp1
S'lemmas'
p2
(lp3
(lp4
S'sa\xe1\xb9\x83s\xc4\x81ra'
p5
aa(lp6
S'para'
p7
aa(lp8
S'p\xc4\x81ra'
p9
aa(lp10
S'd\xc4\x81'
p11
aS'adas'
p12
aa(lp13
S'p\xc4\x81rada'
p14
aa(lp15
S'sm\xe1\xb9\x9b'
p16
aasS'dcs_chunks'
p17
(lp18
g5
ag7
ag9
ag11
ag12
ag14
ag16
asS'sent_id'
p19
I89717
sS'cng'
p20
(lp21
(lp22
S'149'
p23
aa(lp24
S'71'
p25
aa(lp26
S'71'
p27
aa(lp28
S'-13'
p29
aS'29'
p30
aa(lp31
S'29'
p32
aa(lp33
S'-190'
p34
aasS'sentence'
p35
S"saMsArasya paraM pAraM datte'sO pAradaH  smftaH    "
p36
sb.