(i__main__
DCS
p0
(dp1
S'lemmas'
p2
(lp3
(lp4
S'm\xc4\x81gha'
p5
aS'm\xc4\x81sa'
p6
aa(lp7
S'gam'
p8
aa(lp9
S'ga\xe1\xb9\x85g\xc4\x81'
p10
aa(lp11
S'bharata'
p12
aS'\xe1\xb9\x9b\xe1\xb9\xa3abha'
p13
aasS'dcs_chunks'
p14
(lp15
g5
ag6
ag8
ag10
ag12
ag13
asS'sent_id'
p16
I101827
sS'cng'
p17
(lp18
(lp19
S'3'
p20
aS'169'
p21
aa(lp22
S'-59'
p23
aa(lp24
S'170'
p25
aa(lp26
g20
aS'49'
p27
aasS'sentence'
p28
S'mAGamAse gamizyanti gaNgAyAM BaratarzaBa   '
p29
sb.