(i__main__
DCS
p0
(dp1
S'lemmas'
p2
(lp3
(lp4
S'car'
p5
aa(lp6
S'gahana'
p7
aa(lp8
S'ara\xe1\xb9\x87ya'
p9
aa(lp10
S'man'
p11
aa(lp12
S'tad'
p13
aa(lp14
S'pit\xe1\xb9\x9b'
p15
aa(lp16
S'm\xe1\xb9\x9bga'
p17
aasS'dcs_chunks'
p18
(lp19
g5
ag7
ag9
ag11
ag13
ag15
ag17
asS'sent_id'
p20
I112978
sS'cng'
p21
(lp22
(lp23
S'-10'
p24
aa(lp25
S'171'
p26
aa(lp27
S'171'
p28
aa(lp29
S'-153'
p30
aa(lp31
S'29'
p32
aa(lp33
S'69'
p34
aa(lp35
S'69'
p36
aasS'sentence'
p37
S"carantaM gahane 'raRye mene sa pitaraM mfgam   "
p38
sb.