(i__main__
DCS
p0
(dp1
S'lemmas'
p2
(lp3
(lp4
S'atha'
p5
aa(lp6
S'tvad'
p7
aa(lp8
S'sampravac'
p9
aa(lp10
S'l\xc4\xabl\xc4\x81'
p11
aS'deha'
p12
aa(lp13
S'hari'
p14
aa(lp15
S'p\xe1\xb9\x9bthak'
p16
aasS'dcs_chunks'
p17
(lp18
g5
ag7
ag9
ag11
ag12
ag14
ag16
asS'sent_id'
p19
I11657
sS'cng'
p20
(lp21
(lp22
S'2'
p23
aa(lp24
S'112'
p25
aa(lp26
S'-51'
p27
aa(lp28
S'3'
p29
aS'79'
p30
aa(lp31
S'149'
p32
aa(lp33
g23
aasS'sentence'
p34
S'aTa te sampravakzyAmi lIlAdehAn hareH  pfTak   '
p35
sb.