(i__main__
DCS
p0
(dp1
S'lemmas'
p2
(lp3
(lp4
S'atra'
p5
aa(lp6
S'tri'
p7
aS'iti'
p8
aa(lp9
S's\xc4\x81m\xc4\x81nya'
p10
aS'vi\xc5\x9be\xe1\xb9\xa3a'
p11
aS'samav\xc4\x81ya'
p12
aasS'dcs_chunks'
p13
(lp14
g5
ag7
ag8
ag10
ag11
ag12
asS'sent_id'
p15
I118095
sS'cng'
p16
(lp17
(lp18
S'2'
p19
aa(lp20
S'159'
p21
ag19
aa(lp22
S'3'
p23
ag23
aS'159'
p24
aasS'sentence'
p25
S'atra trayARAmiti sAmAnyaviSezasamavAyAnAm   '
p26
sb.