(i__main__
DCS
p0
(dp1
S'lemmas'
p2
(lp3
(lp4
S'catur'
p5
aa(lp6
S'sahita'
p7
aa(lp8
S'putra'
p9
aa(lp10
S'bh\xc4\x81nu'
p11
aa(lp12
S'eva'
p13
aS'anvaya'
p14
aa(lp15
S'tu'
p16
aa(lp17
S'tad'
p18
aasS'dcs_chunks'
p19
(lp20
g5
ag7
ag9
ag11
ag13
ag14
ag16
ag18
asS'sent_id'
p21
I120560
sS'cng'
p22
(lp23
(lp24
S'99'
p25
aa(lp26
S'29'
p27
aa(lp28
S'99'
p29
aa(lp30
S'149'
p31
aa(lp32
S'2'
p33
aS'29'
p34
aa(lp35
g33
aa(lp36
S'29'
p37
aasS'sentence'
p38
S'caturBiH  sahitaH  putrEr BAnor evAnvayas tu saH    '
p39
sb.