(i__main__
DCS
p0
(dp1
S'lemmas'
p2
(lp3
(lp4
S'parikram'
p5
aa(lp6
S'laghu'
p7
aa(lp8
S'adhvaryu'
p9
aS'puru\xe1\xb9\xa3a'
p10
aa(lp11
S'ca'
p12
aasS'dcs_chunks'
p13
(lp14
g5
ag7
ag9
ag10
ag12
asS'sent_id'
p15
I122357
sS'cng'
p16
(lp17
(lp18
S'-190'
p19
aa(lp20
S'179'
p21
aa(lp22
S'3'
p23
aS'179'
p24
aa(lp25
S'2'
p26
aasS'sentence'
p27
S'parikrAntezu laGuzu aDvaryupuruzezu ca   '
p28
sb.