(i__main__
DCS
p0
(dp1
S'lemmas'
p2
(lp3
(lp4
S'sarva'
p5
aS'indriya'
p6
aa(lp7
S'sarva'
p8
aS'\xc4\xab\xc5\x9ba'
p9
aa(lp10
S'vi\xe1\xb9\xa3\xe1\xb9\x87u'
p11
aa(lp12
S'gati'
p13
aa(lp14
S'anuttama'
p15
aasS'dcs_chunks'
p16
(lp17
g5
ag6
ag8
ag9
ag11
ag13
ag15
asS'sent_id'
p18
I12507
sS'cng'
p19
(lp20
(lp21
S'3'
p22
aS'161'
p23
aa(lp24
g22
aS'169'
p25
aa(lp26
S'169'
p27
aa(lp28
S'30'
p29
aa(lp30
S'30'
p31
aasS'sentence'
p32
S'sarvendriyARAM sarveSe vizRO gatir anuttamA   '
p33
sb.