(i__main__
DCS
p0
(dp1
S'lemmas'
p2
(lp3
(lp4
S'etad'
p5
aa(lp6
S'antara'
p7
aa(lp8
S'rak\xe1\xb9\xa3as'
p9
aa(lp10
S'r\xc4\x81va\xe1\xb9\x87a'
p11
aa(lp12
S'pratid\xe1\xb9\x9b\xc5\x9b'
p13
aasS'dcs_chunks'
p14
(lp15
g5
ag7
ag9
ag11
ag13
asS'sent_id'
p16
I125092
sS'cng'
p17
(lp18
(lp19
S'171'
p20
aa(lp21
S'171'
p22
aa(lp23
S'31'
p24
aa(lp25
S'29'
p26
aa(lp27
S'-273'
p28
aasS'sentence'
p29
S'etasminn antare rakzo rAvaRaH  pratyadfSyata   '
p30
sb.