(i__main__
DCS
p0
(dp1
S'lemmas'
p2
(lp3
(lp4
S'tad'
p5
aa(lp6
S'brahman'
p7
aa(lp8
S'ruru'
p9
aa(lp10
S'sarva'
p11
aa(lp12
S'carita'
p13
aa(lp14
S'bh\xc5\xabri'
p15
aS'tejas'
p16
aasS'dcs_chunks'
p17
(lp18
g5
ag7
ag9
ag11
ag13
ag15
ag16
asS'sent_id'
p19
I131920
sS'cng'
p20
(lp21
(lp22
S'149'
p23
aa(lp24
S'49'
p25
aa(lp26
S'149'
p27
aa(lp28
S'71'
p29
aa(lp30
S'71'
p31
aa(lp32
S'3'
p33
aS'149'
p34
aasS'sentence'
p35
S'tasya brahman ruroH  sarvaM caritaM BUritejasaH    '
p36
sb.