(i__main__
DCS
p0
(dp1
S'lemmas'
p2
(lp3
(lp4
S's\xc4\x81m\xc4\x81nya'
p5
aS'etad'
p6
aS'lak\xe1\xb9\xa3a\xe1\xb9\x87a'
p7
aS'vac'
p8
aasS'dcs_chunks'
p9
(lp10
g5
ag6
ag7
ag8
asS'sent_id'
p11
I132226
sS'cng'
p12
(lp13
(lp14
S'31'
p15
aS'31'
p16
aS'31'
p17
aS'-190'
p18
aasS'sentence'
p19
S'sAmAnyametallakzaRamuktam   '
p20
sb.