(i__main__
DCS
p0
(dp1
S'lemmas'
p2
(lp3
(lp4
S'tad'
p5
aa(lp6
S'k\xc4\x81la'
p7
aa(lp8
S'sva'
p9
aS'r\xc4\x81jya'
p10
aS'stha'
p11
aa(lp12
S'mad'
p13
aa(lp14
S'anusm\xe1\xb9\x9b'
p15
aa(lp16
S'paurava'
p17
aasS'dcs_chunks'
p18
(lp19
g5
ag7
ag9
ag10
ag11
ag13
ag15
ag17
asS'sent_id'
p20
I139488
sS'cng'
p21
(lp22
(lp23
S'169'
p24
aa(lp25
S'169'
p26
aa(lp27
S'3'
p28
ag28
aS'29'
p29
aa(lp30
S'72'
p31
aa(lp32
S'-32'
p33
aa(lp34
S'49'
p35
aasS'sentence'
p36
S'tasmin kAle svarAjyasTo mAm anusmara pOrava   '
p37
sb.