(i__main__
DCS
p0
(dp1
S'lemmas'
p2
(lp3
(lp4
S'labh'
p5
aS'm\xc4\x81tra'
p6
aa(lp7
S'vara'
p8
aa(lp9
S'ca'
p10
aS'atha'
p11
aa(lp12
S'sarva'
p13
aa(lp14
S'tad'
p15
aS'b\xc4\x81dh'
p16
aa(lp17
S'praj\xc4\x81'
p18
aasS'dcs_chunks'
p19
(lp20
g5
ag6
ag8
ag10
ag11
ag13
ag15
ag16
ag18
asS'sent_id'
p21
I150138
sS'cng'
p22
(lp23
(lp24
S'-190'
p25
aS'169'
p26
aa(lp27
S'169'
p28
aa(lp29
S'2'
p30
ag30
aa(lp31
S'80'
p32
aa(lp33
S'29'
p34
aS'-43'
p35
aa(lp36
S'80'
p37
aasS'sentence'
p38
S"labDamAtre vare cATa sarvAH  so'bAData prajAH    "
p39
sb.