(i__main__
DCS
p0
(dp1
S'lemmas'
p2
(lp3
(lp4
S'sanaka'
p5
aa(lp6
S'san\xc4\x81tana'
p7
aS'ca'
p8
aS'eva'
p9
aa(lp10
S'tath\xc4\x81'
p11
aS'eva'
p12
aa(lp13
S'ca'
p14
aa(lp15
S'sanandana'
p16
aasS'dcs_chunks'
p17
(lp18
g5
ag7
ag8
ag9
ag11
ag12
ag14
ag16
asS'sent_id'
p19
I160051
sS'cng'
p20
(lp21
(lp22
S'29'
p23
aa(lp24
S'29'
p25
aS'2'
p26
ag26
aa(lp27
g26
ag26
aa(lp28
g26
aa(lp29
S'29'
p30
aasS'sentence'
p31
S'sanakaH  sanAtanaScEva taTEva ca sanandanaH    '
p32
sb.