(i__main__
DCS
p0
(dp1
S'lemmas'
p2
(lp3
(lp4
S'tad'
p5
aS'\xc4\x81\xc5\x9brama'
p6
aS'pada'
p7
aS'abhy\xc4\x81\xc5\x9ba'
p8
aa(lp9
S'v\xc4\x81'
p10
aa(lp11
S'v\xc4\x81ta'
p12
aa(lp13
S'sugandhin'
p14
aasS'dcs_chunks'
p15
(lp16
g5
ag6
ag7
ag8
ag10
ag12
ag14
asS'sent_id'
p17
I161082
sS'cng'
p18
(lp19
(lp20
S'149'
p21
aS'3'
p22
ag22
aS'169'
p23
aa(lp24
S'-159'
p25
aa(lp26
S'39'
p27
aa(lp28
S'39'
p29
aasS'sentence'
p30
S'tasyASramapadAByASe vavur vAtAH  suganDinaH    '
p31
sb.