(i__main__
DCS
p0
(dp1
S'lemmas'
p2
(lp3
(lp4
S'pr\xc4\xab'
p5
aa(lp6
S'ratha'
p7
aa(lp8
S'tad'
p9
aa(lp10
S'bh\xc5\xab'
p11
aa(lp12
S'k\xe1\xb9\x9b\xe1\xb9\xa3\xe1\xb9\x87as\xc4\x81rathi'
p13
aasS'dcs_chunks'
p14
(lp15
g5
ag7
ag9
ag11
ag13
asS'sent_id'
p16
I169980
sS'cng'
p17
(lp18
(lp19
S'-240'
p20
aa(lp21
S'169'
p22
aa(lp23
S'169'
p24
aa(lp25
S'-43'
p26
aa(lp27
S'29'
p28
aasS'sentence'
p29
S'prIyamARo raTe tasminn aBavat kfzRasAraTiH    '
p30
sb.