(i__main__
DCS
p0
(dp1
S'lemmas'
p2
(lp3
(lp4
S'prak\xe1\xb9\x9bti'
p5
aS'bh\xc5\xab'
p6
aa(lp7
S'tu'
p8
aa(lp9
S'khalu'
p10
aa(lp11
S'v\xc4\x81ta'
p12
aS'\xc4\x81di'
p13
aa(lp14
S'phala'
p15
aS'\xc4\x81rogya'
p16
aasS'dcs_chunks'
p17
(lp18
g5
ag6
ag8
ag10
ag12
ag13
ag15
ag16
asS'sent_id'
p19
I173521
sS'cng'
p20
(lp21
(lp22
S'3'
p23
aS'-190'
p24
aa(lp25
S'2'
p26
aa(lp27
g26
aa(lp28
g23
aS'159'
p29
aa(lp30
S'31'
p31
aS'31'
p32
aasS'sentence'
p33
S'prakftiBUtAnAM tu Kalu vAtAdInAM PalamArogyam   '
p34
sb.