(i__main__
DCS
p0
(dp1
S'lemmas'
p2
(lp3
(lp4
S'sarva'
p5
aa(lp6
S'astra'
p7
aS'vidvas'
p8
aa(lp9
S'v\xc4\xabra'
p10
aa(lp11
S'sarva'
p12
aa(lp13
S'yuddha'
p14
aS'vi\xc5\x9b\xc4\x81rada'
p15
aasS'dcs_chunks'
p16
(lp17
g5
ag7
ag8
ag10
ag12
ag14
ag15
asS'sent_id'
p18
I182310
sS'cng'
p19
(lp20
(lp21
S'39'
p22
aa(lp23
S'3'
p24
aS'149'
p25
aa(lp26
S'39'
p27
aa(lp28
S'39'
p29
aa(lp30
g24
aS'39'
p31
aasS'sentence'
p32
S"sarve 'straviduzo vIrAH  sarve yudDaviSAradAH    "
p33
sb.