(i__main__
DCS
p0
(dp1
S'lemmas'
p2
(lp3
(lp4
S'atha'
p5
aa(lp6
S'm\xc4\x81ra\xe1\xb9\x87a'
p7
aa(lp8
S'pu\xe1\xb9\xada'
p9
aS'pra\xc5\x9ba\xe1\xb9\x83s\xc4\x81'
p10
aasS'dcs_chunks'
p11
(lp12
g5
ag7
ag9
ag10
asS'sent_id'
p13
I192666
sS'cng'
p14
(lp15
(lp16
S'2'
p17
aa(lp18
S'171'
p19
aa(lp20
S'3'
p21
aS'30'
p22
aasS'sentence'
p23
S'aTa mAraRe puwapraSaMsA   '
p24
sb.