(i__main__
DCS
p0
(dp1
S'lemmas'
p2
(lp3
(lp4
S'svar\xe1\xb9\x87a'
p5
aa(lp6
S'dv\xc4\x81da\xc5\x9ban'
p7
aS'bh\xc4\x81ga'
p8
aa(lp9
S'as'
p10
aS'tad'
p11
aS'ardha'
p12
aa(lp13
S'\xc5\x9buddha'
p14
aS'p\xc4\x81rada'
p15
aasS'dcs_chunks'
p16
(lp17
g5
ag7
ag8
ag10
ag11
ag12
ag14
ag15
asS'sent_id'
p18
I195648
sS'cng'
p19
(lp20
(lp21
S'31'
p22
aa(lp23
S'3'
p24
aS'31'
p25
aa(lp26
S'-23'
p27
ag24
aS'31'
p28
aa(lp29
g24
aS'31'
p30
aasS'sentence'
p31
S'svarRaM dvAdaSaBAgaM syAttadarDaM SudDapAradam   '
p32
sb.