(i__main__
DCS
p0
(dp1
S'lemmas'
p2
(lp3
(lp4
S'pre'
p5
aa(lp6
S'r\xc4\x81jan'
p7
aa(lp8
S'sajyotis'
p9
aa(lp10
S'yad'
p11
aa(lp12
S'as'
p13
aa(lp14
S'vi\xe1\xb9\xa3aya'
p15
aa(lp16
S'sth\xc4\x81'
p17
aasS'dcs_chunks'
p18
(lp19
g5
ag7
ag9
ag11
ag13
ag15
ag17
asS'sent_id'
p20
I19570
sS'cng'
p21
(lp22
(lp23
S'-190'
p24
aa(lp25
S'169'
p26
aa(lp27
S'2'
p28
aa(lp29
S'149'
p30
aa(lp31
S'-23'
p32
aa(lp33
S'169'
p34
aa(lp35
S'-190'
p36
aasS'sentence'
p37
S'prete rAjani sajyotir yasya syAd vizaye sTitaH    '
p38
sb.