(i__main__
DCS
p0
(dp1
S'lemmas'
p2
(lp3
(lp4
S'idam'
p5
aa(lp6
S'\xc5\x9bara\xe1\xb9\x87a'
p7
aa(lp8
S'aj\xc3\xb1a'
p9
aa(lp10
S'idam'
p11
aa(lp12
S'eva'
p13
aa(lp14
S'vij\xc3\xb1\xc4\x81'
p15
aasS'dcs_chunks'
p16
(lp17
g5
ag7
ag9
ag11
ag13
ag15
asS'sent_id'
p18
I19912
sS'cng'
p19
(lp20
(lp21
S'31'
p22
aa(lp23
S'31'
p24
aa(lp25
S'159'
p26
aa(lp27
S'31'
p28
aa(lp29
S'2'
p30
aa(lp31
S'-10'
p32
aasS'sentence'
p33
S'idaM SaraRam ajYAnAm idam eva vijAnatAm   '
p34
sb.