(i__main__
DCS
p0
(dp1
S'lemmas'
p2
(lp3
(lp4
S'tad'
p5
aS'tulya'
p6
aa(lp7
S'm\xe1\xb9\x9b'
p8
aa(lp9
S'heman'
p10
aa(lp11
S'sarva'
p12
aS'tulya'
p13
aa(lp14
S'm\xe1\xb9\x9b'
p15
aa(lp16
S'ghana'
p17
aasS'dcs_chunks'
p18
(lp19
g5
ag6
ag8
ag10
ag12
ag13
ag15
ag17
asS'sent_id'
p20
I199437
sS'cng'
p21
(lp22
(lp23
S'154'
p24
aS'31'
p25
aa(lp26
S'-190'
p27
aa(lp28
S'31'
p29
aa(lp30
S'3'
p31
aS'31'
p32
aa(lp33
S'-190'
p34
aa(lp35
S'31'
p36
aasS'sentence'
p37
S'tayostulyaM mftaM hema sarvatulyaM mftaM Ganam   '
p38
sb.