(i__main__
DCS
p0
(dp1
S'lemmas'
p2
(lp3
(lp4
S'na'
p5
aa(lp6
S'ca'
p7
aa(lp8
S'kevala'
p9
aa(lp10
S'sa\xe1\xb9\x83hit\xc4\x81'
p11
aS'm\xc4\x81tra'
p12
aa(lp13
S'eva'
p14
aS'as'
p15
aasS'dcs_chunks'
p16
(lp17
g5
ag7
ag9
ag11
ag12
ag14
ag15
asS'sent_id'
p18
I20547
sS'cng'
p19
(lp20
(lp21
S'2'
p22
aa(lp23
g22
aa(lp24
S'31'
p25
aa(lp26
S'3'
p27
aS'31'
p28
aa(lp29
g22
aS'-13'
p30
aasS'sentence'
p31
S'na ca kevalaM saMhitAmAtram evAsti   '
p32
sb.