(i__main__
DCS
p0
(dp1
S'lemmas'
p2
(lp3
(lp4
S'kalpa'
p5
aS'anta'
p6
aa(lp7
S'yad'
p8
aS'bh\xc5\xab'
p9
aS'ka\xe1\xb9\xa3\xe1\xb9\xada'
p10
aa(lp11
S'loka'
p12
aa(lp13
S'tad'
p14
aS'tvad'
p15
aS'eva'
p16
aa(lp17
S'ca'
p18
aasS'dcs_chunks'
p19
(lp20
g5
ag6
ag8
ag9
ag10
ag12
ag14
ag15
ag16
ag18
asS'sent_id'
p21
I210822
sS'cng'
p22
(lp23
(lp24
S'3'
p25
aS'169'
p26
aa(lp27
S'31'
p28
aS'-23'
p29
aS'31'
p30
aa(lp31
S'159'
p32
aa(lp33
S'71'
p34
aS'32'
p35
aS'2'
p36
aa(lp37
g36
aasS'sentence'
p38
S'kalpAnte yadBavetkazwaM lokAnAM tattvameva ca   '
p39
sb.