(i__main__
DCS
p0
(dp1
S'lemmas'
p2
(lp3
(lp4
S'str\xc4\xab'
p5
aS'vipra'
p6
aS'abhyupapatti'
p7
aa(lp8
S'ca'
p9
aa(lp10
S'han'
p11
aa(lp12
S'dharma'
p13
aa(lp14
S'na'
p15
aa(lp16
S'du\xe1\xb9\xa3'
p17
aasS'dcs_chunks'
p18
(lp19
g5
ag6
ag7
ag9
ag11
ag13
ag15
ag17
asS'sent_id'
p20
I21272
sS'cng'
p21
(lp22
(lp23
S'3'
p24
ag24
aS'170'
p25
aa(lp26
S'2'
p27
aa(lp28
S'-10'
p29
aa(lp30
S'89'
p31
aa(lp32
g27
aa(lp33
S'-13'
p34
aasS'sentence'
p35
S'strIviprAByupapattO ca Gnan DarmeRa na duzyati   '
p36
sb.