(i__main__
DCS
p0
(dp1
S'lemmas'
p2
(lp3
(lp4
S'anya'
p5
aS'de\xc5\x9ba'
p6
aS'k\xe1\xb9\x9b'
p7
aa(lp8
S'p\xc4\x81pa'
p9
aa(lp10
S'idam'
p11
aa(lp12
S'k\xe1\xb9\xa3etra'
p13
aa(lp14
S'vina\xc5\x9b'
p15
aasS'dcs_chunks'
p16
(lp17
g5
ag6
ag7
ag9
ag11
ag13
ag15
asS'sent_id'
p18
I213008
sS'cng'
p19
(lp20
(lp21
S'3'
p22
ag22
aS'-190'
p23
aa(lp24
S'31'
p25
aa(lp26
S'171'
p27
aa(lp28
S'171'
p29
aa(lp30
S'-13'
p31
aasS'sentence'
p32
S'anyadeSakftaM pApam asmin kzetre vinaSyati   '
p33
sb.