(i__main__
DCS
p0
(dp1
S'lemmas'
p2
(lp3
(lp4
S'upav\xc4\x81sa'
p5
aS'para'
p6
aa(lp7
S'yad'
p8
aS'tu'
p9
aa(lp10
S'tad'
p11
aS't\xc4\xabrtha'
p12
aa(lp13
S'nar\xc4\x81dhipa'
p14
aasS'dcs_chunks'
p15
(lp16
g5
ag6
ag8
ag9
ag11
ag12
ag14
asS'sent_id'
p17
I213659
sS'cng'
p18
(lp19
(lp20
S'3'
p21
aS'29'
p22
aa(lp23
S'29'
p24
aS'2'
p25
aa(lp26
S'171'
p27
aS'171'
p28
aa(lp29
S'49'
p30
aasS'sentence'
p31
S'upavAsaparo yastu tasmiMstIrTe narADipa   '
p32
sb.