(i__main__
DCS
p0
(dp1
S'lemmas'
p2
(lp3
(lp4
S'caturtha'
p5
aa(lp6
S'var\xe1\xb9\xa3a'
p7
aS'\xc5\x9bataka'
p8
aa(lp9
S'tu\xe1\xb9\xa3'
p10
aa(lp11
S'v\xe1\xb9\x9b\xe1\xb9\xa3av\xc4\x81hana'
p12
aasS'dcs_chunks'
p13
(lp14
g5
ag7
ag8
ag10
ag12
asS'sent_id'
p15
I213754
sS'cng'
p16
(lp17
(lp18
S'171'
p19
aa(lp20
S'3'
p21
aS'171'
p22
aa(lp23
S'-153'
p24
aa(lp25
S'29'
p26
aasS'sentence'
p27
S'caturTe varzaSatake tutoza vfzavAhanaH    '
p28
sb.