(i__main__
DCS
p0
(dp1
S'lemmas'
p2
(lp3
(lp4
S'do\xe1\xb9\xa3a'
p5
aa(lp6
S'mada'
p7
aS'm\xc5\xabrch\xc4\x81'
p8
aa(lp9
S'k\xe1\xb9\x9b'
p10
aS'vega'
p11
aa(lp12
S'dehin'
p13
aasS'dcs_chunks'
p14
(lp15
g5
ag7
ag8
ag10
ag11
ag13
asS'sent_id'
p16
I218352
sS'cng'
p17
(lp18
(lp19
S'179'
p20
aa(lp21
S'3'
p22
aS'150'
p23
aa(lp24
S'-190'
p25
aS'179'
p26
aa(lp27
S'159'
p28
aasS'sentence'
p29
S'dozezu madamUrCAyAH  kftavegezu dehinAm   '
p30
sb.