(i__main__
DCS
p0
(dp1
S'lemmas'
p2
(lp3
(lp4
S'martya'
p5
aa(lp6
S'upak\xc4\x81ra'
p7
aa(lp8
S'tri'
p9
aa(lp10
S'loka'
p11
aa(lp12
S'durlabha'
p13
aasS'dcs_chunks'
p14
(lp15
g5
ag7
ag9
ag11
ag13
asS'sent_id'
p16
I22888
sS'cng'
p17
(lp18
(lp19
S'159'
p20
aa(lp21
S'109'
p22
aa(lp23
S'179'
p24
aa(lp25
S'179'
p26
aa(lp27
S'31'
p28
aasS'sentence'
p29
S'martyAnAm upakArAya trizu lokezu durlaBam   '
p30
sb.