(i__main__
DCS
p0
(dp1
S'lemmas'
p2
(lp3
(lp4
S'yad'
p5
aa(lp6
S'na'
p7
aa(lp8
S'vid'
p9
aa(lp10
S'k\xe1\xb9\x9bp\xc4\x81'
p11
aS'r\xc4\x81\xc5\x9bi'
p12
aa(lp13
S'rasa'
p14
aS'hari'
p15
aS'hara'
p16
aS'\xc4\x81tmaka'
p17
aasS'dcs_chunks'
p18
(lp19
g5
ag7
ag9
ag11
ag12
ag14
ag15
ag16
ag17
asS'sent_id'
p20
I229519
sS'cng'
p21
(lp22
(lp23
S'29'
p24
aa(lp25
S'2'
p26
aa(lp27
S'-13'
p28
aa(lp29
S'3'
p30
aS'69'
p31
aa(lp32
g30
ag30
ag30
aS'69'
p33
aasS'sentence'
p34
S'yo na vetti kfpArASiM rasahariharAtmakam   '
p35
sb.