(i__main__
DCS
p0
(dp1
S'lemmas'
p2
(lp3
(lp4
S'\xc5\x9bukta'
p5
aa(lp6
S'm\xc4\x81tulu\xe1\xb9\x85ga'
p7
aa(lp8
S'svarasa'
p9
aS'\xc4\x81rdraka'
p10
aa(lp11
S'ca'
p12
aasS'dcs_chunks'
p13
(lp14
g5
ag7
ag9
ag10
ag12
asS'sent_id'
p15
I231467
sS'cng'
p16
(lp17
(lp18
S'91'
p19
aa(lp20
S'149'
p21
aa(lp22
S'89'
p23
aS'151'
p24
aa(lp25
S'2'
p26
aasS'sentence'
p27
S'Suktena mAtuluNgasya svarasenArdrakasya ca   '
p28
sb.