(i__main__
DCS
p0
(dp1
S'lemmas'
p2
(lp3
(lp4
S'k\xe1\xb9\xa3\xc4\x81ra'
p5
aa(lp6
S'grah'
p7
aa(lp8
S'k\xe1\xb9\xa3\xc4\xabra'
p9
aS'\xc4\x81jya'
p10
aS'takra'
p11
aS'madya'
p12
aS'\xc4\x81di'
p13
aa(lp14
S'p\xc4\x81'
p15
aasS'dcs_chunks'
p16
(lp17
g5
ag7
ag9
ag10
ag11
ag12
ag13
ag15
asS'sent_id'
p18
I234650
sS'cng'
p19
(lp20
(lp21
S'69'
p22
aa(lp23
S'-230'
p24
aa(lp25
S'3'
p26
ag26
ag26
ag26
aS'99'
p27
aa(lp28
S'-23'
p29
aasS'sentence'
p30
S'kzAraM gfhItvA kzIrAjyatakramadyAdiBiH  pibet   '
p31
sb.