(i__main__
DCS
p0
(dp1
S'lemmas'
p2
(lp3
(lp4
S'garbha'
p5
aa(lp6
S'\xc5\x9bu\xe1\xb9\xa3ka'
p7
aa(lp8
S'tu'
p9
aa(lp10
S'v\xc4\x81ta'
p11
aa(lp12
S'b\xc4\x81la'
p13
aa(lp14
S'ca'
p15
aa(lp16
S'vi\xc5\x9bu\xe1\xb9\xa3'
p17
aasS'dcs_chunks'
p18
(lp19
g5
ag7
ag9
ag11
ag13
ag15
ag17
asS'sent_id'
p20
I240030
sS'cng'
p21
(lp22
(lp23
S'169'
p24
aa(lp25
S'169'
p26
aa(lp27
S'2'
p28
aa(lp29
S'89'
p30
aa(lp31
S'159'
p32
aa(lp33
g28
aa(lp34
S'-10'
p35
aasS'sentence'
p36
S'garBe Suzke tu vAtena bAlAnAM ca viSuzyatAm   '
p37
sb.