(i__main__
DCS
p0
(dp1
S'lemmas'
p2
(lp3
(lp4
S'sn\xc4\x81na'
p5
aS'vastra'
p6
aS'vas\xc4\x81'
p7
aS'm\xc4\x81\xe1\xb9\x83sa'
p8
aS'madya'
p9
aS'k\xe1\xb9\xa3\xc4\xabra'
p10
aS'gu\xe1\xb8\x8da'
p11
aS'\xc4\x81di'
p12
aa(lp13
S'ca'
p14
aasS'dcs_chunks'
p15
(lp16
g5
ag6
ag7
ag8
ag9
ag10
ag11
ag12
ag14
asS'sent_id'
p17
I243203
sS'cng'
p18
(lp19
(lp20
S'3'
p21
ag21
ag21
ag21
ag21
ag21
ag21
aS'31'
p22
aa(lp23
S'2'
p24
aasS'sentence'
p25
S'snAnavastravasAmAMsamadyakzIraguqAdi ca   '
p26
sb.