(i__main__
DCS
p0
(dp1
S'lemmas'
p2
(lp3
(lp4
S'sir\xc4\x81'
p5
aS'vimok\xe1\xb9\xa3a'
p6
aa(lp7
S'snih'
p8
aa(lp9
S'triv\xe1\xb9\x9bt'
p10
aS'\xc5\x9bre\xe1\xb9\xa3\xe1\xb9\xadha'
p11
aa(lp12
S'virecana'
p13
aasS'dcs_chunks'
p14
(lp15
g5
ag6
ag8
ag10
ag11
ag13
asS'sent_id'
p16
I243948
sS'cng'
p17
(lp18
(lp19
S'3'
p20
aS'29'
p21
aa(lp22
S'-190'
p23
aa(lp24
S'30'
p25
aS'31'
p26
aa(lp27
S'31'
p28
aasS'sentence'
p29
S'sirAvimokzaH  snigDasya trivfcCrezWaM virecanam   '
p30
sb.