(i__main__
DCS
p0
(dp1
S'lemmas'
p2
(lp3
(lp4
S'm\xc4\x81rga'
p5
aS'ga'
p6
aa(lp7
S'br\xc4\x81hma\xe1\xb9\x87a'
p8
aa(lp9
S'har\xe1\xb9\xa3a'
p10
aS'udyuj'
p11
aS'tad'
p12
aS'gam'
p13
aS'm\xc4\x81nasa'
p14
aasS'dcs_chunks'
p15
(lp16
g5
ag6
ag8
ag10
ag11
ag12
ag13
ag14
asS'sent_id'
p17
I247047
sS'cng'
p18
(lp19
(lp20
S'3'
p21
aS'29'
p22
aa(lp23
S'29'
p24
aa(lp25
g21
aS'-190'
p26
ag21
aS'-190'
p27
aS'29'
p28
aasS'sentence'
p29
S'mArgago brAhmaRo harzodyuktastadgatamAnasaH    '
p30
sb.