(i__main__
DCS
p0
(dp1
S'lemmas'
p2
(lp3
(lp4
S'sv\xc4\x81tman'
p5
aS'eva'
p6
aS'idam'
p7
aa(lp8
S'vas'
p9
aa(lp10
S'sakala'
p11
aS'pr\xc4\x81\xe1\xb9\x87in'
p12
aa(lp13
S'\xc4\xab\xc5\x9bvara'
p14
aS'antar'
p15
aasS'dcs_chunks'
p16
(lp17
g5
ag6
ag7
ag9
ag11
ag12
ag14
ag15
asS'sent_id'
p18
I25049
sS'cng'
p19
(lp20
(lp21
S'29'
p22
aS'2'
p23
aS'29'
p24
aa(lp25
S'-13'
p26
aa(lp27
S'3'
p28
aS'159'
p29
aa(lp30
S'29'
p31
ag23
aasS'sentence'
p32
S"svAtmEvAyaM vasati sakalaprARinAm ISvaro'ntaH    "
p33
sb.