(i__main__
DCS
p0
(dp1
S'lemmas'
p2
(lp3
(lp4
S'tad'
p5
aa(lp6
S'tapas'
p7
aa(lp8
S'phala'
p9
aa(lp10
S'vi\xc5\x9be\xe1\xb9\xa3a'
p11
aS'artha'
p12
aS'abhidh\xc4\x81'
p13
aa(lp14
S'yoga'
p15
aS'atigati'
p16
aS'iti'
p17
aasS'dcs_chunks'
p18
(lp19
g5
ag7
ag9
ag11
ag12
ag13
ag15
ag16
ag17
asS'sent_id'
p20
I25108
sS'cng'
p21
(lp22
(lp23
S'131'
p24
aa(lp25
S'151'
p26
aa(lp27
S'31'
p28
aa(lp29
S'3'
p30
aS'31'
p31
aS'-243'
p32
aa(lp33
S'29'
p34
aS'70'
p35
aS'2'
p36
aasS'sentence'
p37
S"tasmAt tapasaH  PalaM viSezArTamaBiDIyate yogo'tigatimiti   "
p38
sb.