(i__main__
DCS
p0
(dp1
S'lemmas'
p2
(lp3
(lp4
S'eka'
p5
aS'k\xc4\x81la'
p6
aa(lp7
S'dvi'
p8
aS'k\xc4\x81la'
p9
aa(lp10
S'v\xc4\x81'
p11
aa(lp12
S'tri'
p13
aS'k\xc4\x81la'
p14
aa(lp15
S'ca'
p16
aS'api'
p17
aa(lp18
S'yad'
p19
aa(lp20
S'sad\xc4\x81'
p21
aasS'dcs_chunks'
p22
(lp23
g5
ag6
ag8
ag9
ag11
ag13
ag14
ag16
ag17
ag19
ag21
asS'sent_id'
p24
I252442
sS'cng'
p25
(lp26
(lp27
S'3'
p28
aS'69'
p29
aa(lp30
g28
aS'69'
p31
aa(lp32
S'2'
p33
aa(lp34
g28
aS'69'
p35
aa(lp36
g33
ag33
aa(lp37
S'29'
p38
aa(lp39
g33
aasS'sentence'
p40
S'ekakAlaM dvikAlaM vA trikAlaM cApi yaH  sadA   '
p41
sb.