(i__main__
DCS
p0
(dp1
S'lemmas'
p2
(lp3
(lp4
S'jala'
p5
aS'bindu'
p6
aa(lp7
S'ku\xc5\x9ba'
p8
aS'agra'
p9
aa(lp10
S'm\xc4\x81sa'
p11
aa(lp12
S'm\xc4\x81sa'
p13
aa(lp14
S'p\xc4\x81'
p15
aS'ca'
p16
aa(lp17
S'tad'
p18
aasS'dcs_chunks'
p19
(lp20
g5
ag6
ag8
ag9
ag11
ag13
ag15
ag16
ag18
asS'sent_id'
p21
I252776
sS'cng'
p22
(lp23
(lp24
S'3'
p25
aS'71'
p26
aa(lp27
g25
aS'91'
p28
aa(lp29
S'169'
p30
aa(lp31
S'169'
p32
aa(lp33
S'-23'
p34
aS'2'
p35
aa(lp36
S'29'
p37
aasS'sentence'
p38
S'jalabindu kuSAgreRa mAse mAse pibecca saH    '
p39
sb.