(i__main__
DCS
p0
(dp1
S'lemmas'
p2
(lp3
(lp4
S'yadi'
p5
aa(lp6
S'deva'
p7
aS'apar\xc4\x81dha'
p8
aa(lp9
S'api'
p10
aa(lp11
S'na'
p12
aS'mad'
p13
aa(lp14
S'kup'
p15
aa(lp16
S'tvad'
p17
aasS'dcs_chunks'
p18
(lp19
g5
ag7
ag8
ag10
ag12
ag13
ag15
ag17
asS'sent_id'
p20
I253715
sS'cng'
p21
(lp22
(lp23
S'2'
p24
aa(lp25
S'3'
p26
aS'169'
p27
aa(lp28
g24
aa(lp29
g24
aS'182'
p30
aa(lp31
S'-190'
p32
aa(lp33
S'152'
p34
aasS'sentence'
p35
S"yadi devAparADe 'pi nAsmAsu kupitaM tava   "
p36
sb.