(i__main__
DCS
p0
(dp1
S'lemmas'
p2
(lp3
(lp4
S's\xc5\xabrya'
p5
aS'loka'
p6
aa(lp7
S'vas'
p8
aa(lp9
S't\xc4\x81vat'
p10
aa(lp11
S'y\xc4\x81vat'
p12
aa(lp13
S'kalpa'
p14
aS'\xc5\x9bata'
p15
aS'traya'
p16
aasS'dcs_chunks'
p17
(lp18
g5
ag6
ag8
ag10
ag12
ag14
ag15
ag16
asS'sent_id'
p19
I254158
sS'cng'
p20
(lp21
(lp22
S'3'
p23
aS'169'
p24
aa(lp25
S'-23'
p26
aa(lp27
S'2'
p28
aa(lp29
g28
aa(lp30
g23
ag23
aS'31'
p31
aasS'sentence'
p32
S'sUryaloke vaset tAvad yAvat kalpaSatatrayam   '
p33
sb.