(i__main__
DCS
p0
(dp1
S'lemmas'
p2
(lp3
(lp4
S'bahu'
p5
aa(lp6
S'ca'
p7
aS'ekaj\xc4\x81ta'
p8
aa(lp9
S'n\xc4\x81n\xc4\x81str\xc4\xab'
p10
aa(lp11
S'nibudh'
p12
aasS'dcs_chunks'
p13
(lp14
g5
ag7
ag8
ag10
ag12
asS'sent_id'
p15
I25491
sS'cng'
p16
(lp17
(lp18
S'180'
p19
aa(lp20
S'2'
p21
aS'159'
p22
aa(lp23
S'180'
p24
aa(lp25
S'-38'
p26
aasS'sentence'
p27
S'bahvIzu cEkajAtAnAM nAnAstrIzu niboData   '
p28
sb.