(i__main__
DCS
p0
(dp1
S'lemmas'
p2
(lp3
(lp4
S'iha'
p5
aa(lp6
S'\xc5\x9bayy\xc4\x81'
p7
aS'gam'
p8
aS'api'
p9
aa(lp10
S'bandhu'
p11
aS'madhya'
p12
aS'api'
p13
aa(lp14
S'sth\xc4\x81'
p15
aasS'dcs_chunks'
p16
(lp17
g5
ag7
ag8
ag9
ag11
ag12
ag13
ag15
asS'sent_id'
p18
I26272
sS'cng'
p19
(lp20
(lp21
S'2'
p22
aa(lp23
S'3'
p24
aS'-190'
p25
ag22
aa(lp26
g24
aS'171'
p27
ag22
aa(lp28
S'-10'
p29
aasS'sentence'
p30
S"iha SayyAgatenApi banDumaDye'pi tizWatA   "
p31
sb.