(i__main__
DCS
p0
(dp1
S'lemmas'
p2
(lp3
(lp4
S'\xc5\x9bar\xc4\xabra'
p5
aa(lp6
S'n\xc4\x81\xc5\x9ba'
p7
aS'sahita'
p8
aa(lp9
S'na'
p10
aS'i\xe1\xb9\xa3'
p11
aa(lp12
S'sura'
p13
aS'sattama'
p14
aasS'dcs_chunks'
p15
(lp16
g5
ag7
ag8
ag10
ag11
ag13
ag14
asS'sent_id'
p17
I271292
sS'cng'
p18
(lp19
(lp20
S'71'
p21
aa(lp22
S'3'
p23
aS'71'
p24
aa(lp25
S'2'
p26
aS'-11'
p27
aa(lp28
g23
aS'49'
p29
aasS'sentence'
p30
S'SarIraM nASasahitaM necCAmi surasattama   '
p31
sb.