(i__main__
DCS
p0
(dp1
S'lemmas'
p2
(lp3
(lp4
S'tad'
p5
aa(lp6
S'sn\xc4\x81'
p7
aa(lp8
S'sarva'
p9
aS't\xc4\xabrtha'
p10
aa(lp11
S'sn\xc4\x81'
p12
aa(lp13
S'bh\xc5\xab'
p14
aa(lp15
S'm\xc4\x81nava'
p16
aasS'dcs_chunks'
p17
(lp18
g5
ag7
ag9
ag10
ag12
ag14
ag16
asS'sent_id'
p19
I271479
sS'cng'
p20
(lp21
(lp22
S'170'
p23
aa(lp24
S'-190'
p25
aa(lp26
S'3'
p27
aS'171'
p28
aa(lp29
S'-190'
p30
aa(lp31
S'-13'
p32
aa(lp33
S'29'
p34
aasS'sentence'
p35
S'tasyAM snAtaH  sarvatIrTe snAto Bavati mAnavaH    '
p36
sb.