(i__main__
DCS
p0
(dp1
S'lemmas'
p2
(lp3
(lp4
S'candana'
p5
aS'udaka'
p6
aS'\xc5\x9b\xc4\xabta'
p7
aa(lp8
S'\xc5\x9b\xc4\xabta'
p9
aa(lp10
S'dh\xc4\x81r\xc4\x81g\xe1\xb9\x9bha'
p11
aa(lp12
S'api'
p13
aa(lp14
S'v\xc4\x81'
p15
aasS'dcs_chunks'
p16
(lp17
g5
ag6
ag7
ag9
ag11
ag13
ag15
asS'sent_id'
p18
I273665
sS'cng'
p19
(lp20
(lp21
S'3'
p22
ag22
aS'181'
p23
aa(lp24
S'171'
p25
aa(lp26
S'171'
p27
aa(lp28
S'2'
p29
aa(lp30
g29
aasS'sentence'
p31
S"candanodakaSItezu SIte DArAgfhe 'pi vA   "
p32
sb.