(i__main__
DCS
p0
(dp1
S'lemmas'
p2
(lp3
(lp4
S'kara'
p5
aS'p\xc4\x81da'
p6
aS'danta'
p7
aS'bha\xe1\xb9\x85ga'
p8
aa(lp9
S'kar\xe1\xb9\x87a'
p10
aS'n\xc4\x81s\xc4\x81'
p11
aS'vikartana'
p12
aa(lp13
S'madhyama'
p14
aasS'dcs_chunks'
p15
(lp16
g5
ag6
ag7
ag8
ag10
ag11
ag12
ag14
asS'sent_id'
p17
I274794
sS'cng'
p18
(lp19
(lp20
S'3'
p21
ag21
ag21
aS'169'
p22
aa(lp23
g21
ag21
aS'171'
p24
aa(lp25
S'71'
p26
aasS'sentence'
p27
S'karapAdadantaBaNge karRanAsAvikartane maDyamam   '
p28
sb.