(i__main__
DCS
p0
(dp1
S'lemmas'
p2
(lp3
(lp4
S'satya'
p5
aS'loka'
p6
aa(lp7
S'tath\xc4\x81'
p8
aS'a\xe1\xb9\x87\xe1\xb8\x8da'
p9
aa(lp10
S'ko\xe1\xb9\xadi'
p11
aS'ko\xe1\xb9\xadi'
p12
aS'\xc5\x9bata'
p13
aa(lp14
S'ca'
p15
aasS'dcs_chunks'
p16
(lp17
g5
ag6
ag8
ag9
ag11
ag12
ag13
ag15
asS'sent_id'
p18
I285213
sS'cng'
p19
(lp20
(lp21
S'3'
p22
aS'29'
p23
aa(lp24
S'2'
p25
aS'159'
p26
aa(lp27
g22
ag22
aS'41'
p28
aa(lp29
g25
aasS'sentence'
p30
S'satyalokas taTARqAnAM kowikowiSatAni ca   '
p31
sb.