(i__main__
DCS
p0
(dp1
S'lemmas'
p2
(lp3
(lp4
S'mad'
p5
aa(lp6
S'dh\xc4\x81ray'
p7
aa(lp8
S'cetas'
p9
aa(lp10
S'upasth\xc4\x81'
p11
aa(lp12
S'siddhi'
p13
aasS'dcs_chunks'
p14
(lp15
g5
ag7
ag9
ag11
ag13
asS'sent_id'
p16
I28900
sS'cng'
p17
(lp18
(lp19
S'172'
p20
aa(lp21
S'-10'
p22
aa(lp23
S'71'
p24
aa(lp25
S'-19'
p26
aa(lp27
S'40'
p28
aasS'sentence'
p29
S'mayi DArayataS ceta upatizWanti sidDayaH    '
p30
sb.