(i__main__
DCS
p0
(dp1
S'lemmas'
p2
(lp3
(lp4
S'ucc\xc4\x81vaca'
p5
aa(lp6
S'bh\xc5\xabta'
p7
aa(lp8
S'durj\xc3\xb1eya'
p9
aa(lp10
S'ak\xe1\xb9\x9bt\xc4\x81tman'
p11
aasS'dcs_chunks'
p12
(lp13
g5
ag7
ag9
ag11
asS'sent_id'
p14
I28976
sS'cng'
p15
(lp16
(lp17
S'181'
p18
aa(lp19
S'181'
p20
aa(lp21
S'69'
p22
aa(lp23
S'99'
p24
aasS'sentence'
p25
S'uccAvacezu BUtezu durjYeyam akftAtmaBiH    '
p26
sb.