(i__main__
DCS
p0
(dp1
S'lemmas'
p2
(lp3
(lp4
S'pratigraha'
p5
aa(lp6
S'man'
p7
aa(lp8
S'tapas'
p9
aS'tejas'
p10
aS'ya\xc5\x9bas'
p11
aS'nud'
p12
aasS'dcs_chunks'
p13
(lp14
g5
ag7
ag9
ag10
ag11
ag12
asS'sent_id'
p15
I29147
sS'cng'
p16
(lp17
(lp18
S'69'
p19
aa(lp20
S'-10'
p21
aa(lp22
S'3'
p23
ag23
ag23
aS'69'
p24
aasS'sentence'
p25
S'pratigrahaM manyamAnas tapastejoyaSonudam   '
p26
sb.