(i__main__
DCS
p0
(dp1
S'lemmas'
p2
(lp3
(lp4
S'na'
p5
aa(lp6
S'\xc5\x9b\xc5\xabdra'
p7
aS'r\xc4\x81jya'
p8
aa(lp9
S'nivas'
p10
aasS'dcs_chunks'
p11
(lp12
g5
ag7
ag8
ag10
asS'sent_id'
p13
I293534
sS'cng'
p14
(lp15
(lp16
S'2'
p17
aa(lp18
S'3'
p19
aS'171'
p20
aa(lp21
S'-23'
p22
aasS'sentence'
p23
S'na SUdrarAjye nivaset   '
p24
sb.