(i__main__
DCS
p0
(dp1
S'lemmas'
p2
(lp3
(lp4
S'v\xe1\xb9\x9bddha'
p5
aS'anu\xc5\x9b\xc4\x81sana'
p6
aa(lp7
S'majj'
p8
aa(lp9
S'satya'
p10
aS'vrata'
p11
aS'par\xc4\x81ya\xe1\xb9\x87a'
p12
aasS'dcs_chunks'
p13
(lp14
g5
ag6
ag8
ag10
ag11
ag12
asS'sent_id'
p15
I297090
sS'cng'
p16
(lp17
(lp18
S'3'
p19
aS'171'
p20
aa(lp21
S'-190'
p22
aa(lp23
g19
ag19
aS'39'
p24
aasS'sentence'
p25
S'vfdDAnuSAsane magnAH  satyavrataparAyaRAH    '
p26
sb.