(i__main__
DCS
p0
(dp1
S'lemmas'
p2
(lp3
(lp4
S'etad'
p5
aa(lp6
S'ca'
p7
aS'anya'
p8
aa(lp9
S'ca'
p10
aa(lp11
S'bh\xc5\xabyas'
p12
aa(lp13
S'de\xc5\x9ba'
p14
aa(lp15
S'de\xc5\x9ba'
p16
aa(lp17
S'yath\xc4\x81vidhi'
p18
aasS'dcs_chunks'
p19
(lp20
g5
ag7
ag8
ag10
ag12
ag14
ag16
ag18
asS'sent_id'
p21
I297051
sS'cng'
p22
(lp23
(lp24
S'39'
p25
aa(lp26
S'2'
p27
aS'39'
p28
aa(lp29
g27
aa(lp30
S'39'
p31
aa(lp32
S'129'
p33
aa(lp34
S'69'
p35
aa(lp36
g27
aasS'sentence'
p37
S'ete cAnye ca BUyAMso deSAd deSaM yaTAviDi   '
p38
sb.