(i__main__
DCS
p0
(dp1
S'lemmas'
p2
(lp3
(lp4
S'idam'
p5
aa(lp6
S'sarva'
p7
aS'idam'
p8
aa(lp9
S'jan'
p10
aS'atra'
p11
aS'eva'
p12
aa(lp13
S'laya'
p14
aS'i'
p15
aasS'dcs_chunks'
p16
(lp17
g5
ag7
ag8
ag10
ag11
ag12
ag14
ag15
asS'sent_id'
p18
I305572
sS'cng'
p19
(lp20
(lp21
S'150'
p22
aa(lp23
S'31'
p24
aS'31'
p25
aa(lp26
S'-190'
p27
aS'2'
p28
ag28
aa(lp29
S'69'
p30
aS'-53'
p31
aasS'sentence'
p32
S'asyAH  sarvamidaM jAtamatrEva layamezyati   '
p33
sb.