(i__main__
DCS
p0
(dp1
S'lemmas'
p2
(lp3
(lp4
S'idam'
p5
aa(lp6
S'va\xe1\xb9\x83\xc5\x9ba'
p7
aS'pras\xc5\xab'
p8
aS'ca'
p9
aa(lp10
S'bhuj'
p11
aS'idam'
p12
aa(lp13
S'p\xe1\xb9\x9bthiv\xc4\xab'
p14
aa(lp15
S'pur\xc4\x81'
p16
aasS'dcs_chunks'
p17
(lp18
g5
ag7
ag8
ag9
ag11
ag12
ag14
ag16
asS'sent_id'
p19
I308765
sS'cng'
p20
(lp21
(lp22
S'159'
p23
aa(lp24
S'3'
p25
aS'-190'
p26
aS'2'
p27
aa(lp28
S'-190'
p29
aS'30'
p30
aa(lp31
S'30'
p32
aa(lp33
g27
aasS'sentence'
p34
S'ezAM vaMSaprasUtESca BukteyaM pfTivI purA   '
p35
sb.