(i__main__
DCS
p0
(dp1
S'lemmas'
p2
(lp3
(lp4
S'br\xc4\x81hma\xe1\xb9\x87a'
p5
aS'tu'
p6
aS'br\xc5\xab'
p7
aa(lp8
S'v\xc4\x81kya'
p9
aa(lp10
S'ka'
p11
aa(lp12
S'k\xc4\x81la'
p13
aa(lp14
S'k\xe1\xb9\xa3a\xe1\xb9\x87a'
p15
aa(lp16
S'bh\xc5\xab'
p17
aasS'dcs_chunks'
p18
(lp19
g5
ag6
ag7
ag9
ag11
ag13
ag15
ag17
asS'sent_id'
p20
I321570
sS'cng'
p21
(lp22
(lp23
S'29'
p24
aS'2'
p25
aS'-43'
p26
aa(lp27
S'71'
p28
aa(lp29
S'169'
p30
aa(lp31
S'169'
p32
aa(lp33
S'29'
p34
aa(lp35
S'-23'
p36
aasS'sentence'
p37
S'brAhmaRastvabravId vAkyaM kasmin kAle kzaRo Bavet   '
p38
sb.