(i__main__
DCS
p0
(dp1
S'lemmas'
p2
(lp3
(lp4
S'ku\xe1\xb9\xadumba'
p5
aS'artha'
p6
aa(lp7
S'dasyu'
p8
aa(lp9
S'tad'
p10
aa(lp11
S's\xc4\x81h\xc4\x81yya'
p12
aa(lp13
S'ca'
p14
aS'api'
p15
aS'atha'
p16
aS'k\xe1\xb9\x9b'
p17
aasS'dcs_chunks'
p18
(lp19
g5
ag6
ag8
ag10
ag12
ag14
ag15
ag16
ag17
asS'sent_id'
p20
I325000
sS'cng'
p21
(lp22
(lp23
S'3'
p24
aS'179'
p25
aa(lp26
S'149'
p27
aa(lp28
S'29'
p29
aa(lp30
S'71'
p31
aa(lp32
S'2'
p33
ag33
ag33
aS'-43'
p34
aasS'sentence'
p35
S'kuwumbArTezu dasyoH  sa sAhAyyaM cApyaTAkarot   '
p36
sb.