(i__main__
DCS
p0
(dp1
S'lemmas'
p2
(lp3
(lp4
S'meru'
p5
aS'madhya'
p6
aa(lp7
S'sth\xc4\x81'
p8
aa(lp9
S'brahman'
p10
aa(lp11
S'tad'
p12
aa(lp13
S'br\xc5\xab'
p14
aa(lp15
S'dvijasattama'
p16
aasS'dcs_chunks'
p17
(lp18
g5
ag6
ag8
ag10
ag12
ag14
ag16
asS'sent_id'
p19
I325999
sS'cng'
p20
(lp21
(lp22
S'3'
p23
aS'171'
p24
aa(lp25
S'-190'
p26
aa(lp27
S'29'
p28
aa(lp29
S'71'
p30
aa(lp31
S'-32'
p32
aa(lp33
S'49'
p34
aasS'sentence'
p35
S'merumaDye sTito brahmA tad brUhi dvijasattama   '
p36
sb.