(i__main__
DCS
p0
(dp1
S'lemmas'
p2
(lp3
(lp4
S'satya'
p5
aa(lp6
S'veda'
p7
aa(lp8
S'j\xc4\x81g\xe1\xb9\x9b'
p9
aa(lp10
S'phala'
p11
aa(lp12
S'satya'
p13
aa(lp14
S'para'
p15
aa(lp16
S'sm\xe1\xb9\x9b'
p17
aasS'dcs_chunks'
p18
(lp19
g5
ag7
ag9
ag11
ag13
ag15
ag17
asS'sent_id'
p20
I326977
sS'cng'
p21
(lp22
(lp23
S'31'
p24
aa(lp25
S'179'
p26
aa(lp27
S'-13'
p28
aa(lp29
S'31'
p30
aa(lp31
S'171'
p32
aa(lp33
S'31'
p34
aa(lp35
S'-190'
p36
aasS'sentence'
p37
S'satyaM vedezu jAgarti PalaM satye paraM smftam   '
p38
sb.