(i__main__
DCS
p0
(dp1
S'lemmas'
p2
(lp3
(lp4
S'uttara'
p5
aa(lp6
S'gu\xe1\xb9\x87a'
p7
aa(lp8
S'as'
p9
aa(lp10
S'sarva'
p11
aa(lp12
S'sarva'
p13
aa(lp14
S'ca'
p15
aS'uttara'
p16
aasS'dcs_chunks'
p17
(lp18
g5
ag7
ag9
ag11
ag13
ag15
ag16
asS'sent_id'
p19
I330605
sS'cng'
p20
(lp21
(lp22
S'179'
p23
aa(lp24
S'39'
p25
aa(lp26
S'-19'
p27
aa(lp28
S'39'
p29
aa(lp30
S'179'
p31
aa(lp32
S'2'
p33
aS'39'
p34
aasS'sentence'
p35
S'uttarezu guRAH  santi sarve sarvezu cottarAH    '
p36
sb.