(i__main__
DCS
p0
(dp1
S'lemmas'
p2
(lp3
(lp4
S'ka\xe1\xb9\x87\xe1\xb9\xadha'
p5
aS'stha'
p6
aS'acyuta'
p7
aa(lp8
S's\xc4\x81k\xe1\xb9\xa3\xc4\x81t'
p9
aS'rudra'
p10
aa(lp11
S't\xc4\x81lu'
p12
aS'tala'
p13
aa(lp14
S'sth\xc4\x81'
p15
aasS'dcs_chunks'
p16
(lp17
g5
ag6
ag7
ag9
ag10
ag12
ag13
ag15
asS'sent_id'
p18
I33629
sS'cng'
p19
(lp20
(lp21
S'3'
p22
aS'69'
p23
aS'69'
p24
aa(lp25
S'2'
p26
aS'69'
p27
aa(lp28
g22
aS'169'
p29
aa(lp30
S'-190'
p31
aasS'sentence'
p32
S'kaRWasTamacyutaM sAkzAdrudraM tAlutale sTitam   '
p33
sb.