(i__main__
DCS
p0
(dp1
S'lemmas'
p2
(lp3
(lp4
S'atas'
p5
aa(lp6
S'v\xc4\x81yu'
p7
aS'eva'
p8
aa(lp9
S'spar\xc5\x9ba'
p10
aasS'dcs_chunks'
p11
(lp12
g5
ag7
ag8
ag10
asS'sent_id'
p13
I341006
sS'cng'
p14
(lp15
(lp16
S'2'
p17
aa(lp18
S'149'
p19
ag17
aa(lp20
S'29'
p21
aasS'sentence'
p22
S'ato vAyoreva sparSaH    '
p23
sb.