(i__main__
DCS
p0
(dp1
S'lemmas'
p2
(lp3
(lp4
S'tad'
p5
aS'druma'
p6
aa(lp7
S'tyaj'
p8
aS'a\xc5\x9bman'
p9
aS'var\xe1\xb9\xa3a'
p10
aa(lp11
S'tad'
p12
aS'pu\xe1\xb9\xa3pa'
p13
aS'var\xe1\xb9\xa3a'
p14
aa(lp15
S'rucira'
p16
aa(lp17
S'bh\xc5\xab'
p18
aasS'dcs_chunks'
p19
(lp20
g5
ag6
ag8
ag9
ag10
ag12
ag13
ag14
ag16
ag18
asS'sent_id'
p21
I343569
sS'cng'
p22
(lp23
(lp24
S'169'
p25
aS'169'
p26
aa(lp27
S'-159'
p28
aS'3'
p29
aS'71'
p30
aa(lp31
S'31'
p32
ag29
aS'31'
p33
aa(lp34
S'31'
p35
aa(lp36
S'-153'
p37
aasS'sentence'
p38
S'tasmindrume tatyajuraSmavarzaM tatpuzpavarzaM ruciraM baBUva   '
p39
sb.