(i__main__
DCS
p0
(dp1
S'lemmas'
p2
(lp3
(lp4
S'bahu'
p5
aS'yuj'
p6
aasS'dcs_chunks'
p7
(lp8
g5
ag6
asS'sent_id'
p9
I344034
sS'cng'
p10
(lp11
(lp12
S'101'
p13
aS'-190'
p14
aasS'sentence'
p15
S'bahuBiryukta ekAnnaviMSatyAmalavarjitEH    '
p16
sb.