(i__main__
DCS
p0
(dp1
S'lemmas'
p2
(lp3
(lp4
S'n\xe1\xb9\x9btya'
p5
aS'prasa\xc3\xb1j'
p6
aS'citta'
p7
aS'd\xe1\xb9\x9b\xe1\xb9\xa3\xe1\xb9\xad\xc4\x81nta'
p8
aa(lp9
S'ka'
p10
aasS'dcs_chunks'
p11
(lp12
g5
ag6
ag7
ag8
ag10
asS'sent_id'
p13
I34807
sS'cng'
p14
(lp15
(lp16
S'3'
p17
aS'-190'
p18
ag17
aS'129'
p19
aa(lp20
S'129'
p21
aasS'sentence'
p22
S'nftyaprasaktacittadfzwAntAt kasmAt   '
p23
sb.