(i__main__
DCS
p0
(dp1
S'lemmas'
p2
(lp3
(lp4
S'tad'
p5
aa(lp6
S'ca'
p7
aa(lp8
S'na'
p9
aS'ati'
p10
aS'd\xc5\xabra'
p11
aa(lp12
S'nad\xc4\xab'
p13
aasS'dcs_chunks'
p14
(lp15
g5
ag7
ag9
ag10
ag11
ag13
asS'sent_id'
p16
I349510
sS'cng'
p17
(lp18
(lp19
S'149'
p20
aa(lp21
S'2'
p22
aa(lp23
g22
ag22
aS'171'
p24
aa(lp25
S'30'
p26
aasS'sentence'
p27
S'tasya ca nAtidUre nadI   '
p28
sb.