(i__main__
DCS
p0
(dp1
S'lemmas'
p2
(lp3
(lp4
S'ap\xc4\x81na'
p5
aa(lp6
S'\xc5\xabrdhva'
p7
aS'ga'
p8
aa(lp9
S'jan'
p10
aa(lp11
S'pray\xc4\x81'
p12
aa(lp13
S'vahni'
p14
aS'ma\xe1\xb9\x87\xe1\xb8\x8dala'
p15
aasS'dcs_chunks'
p16
(lp17
g5
ag7
ag8
ag10
ag12
ag14
ag15
asS'sent_id'
p18
I35066
sS'cng'
p19
(lp20
(lp21
S'169'
p22
aa(lp23
S'3'
p24
aS'169'
p25
aa(lp26
S'-190'
p27
aa(lp28
S'-190'
p29
aa(lp30
g24
aS'69'
p31
aasS'sentence'
p32
S'apAna UrDvage jAte prayAte vahnimaRqalam   '
p33
sb.