(i__main__
DCS
p0
(dp1
S'lemmas'
p2
(lp3
(lp4
S'tad'
p5
aS'prad\xc4\x81na'
p6
aS'abh\xc4\xabpsita'
p7
aa(lp8
S'loka'
p9
aa(lp10
S'\xc4\x81p'
p11
aasS'dcs_chunks'
p12
(lp13
g5
ag6
ag7
ag9
ag11
asS'sent_id'
p14
I354341
sS'cng'
p15
(lp16
(lp17
S'3'
p18
aS'91'
p19
aS'69'
p20
aa(lp21
S'69'
p22
aa(lp23
S'-13'
p24
aasS'sentence'
p25
S'tatpradAnenABIpsitaM lokam Apnoti   '
p26
sb.