(i__main__
DCS
p0
(dp1
S'lemmas'
p2
(lp3
(lp4
S'apatya'
p5
aa(lp6
S'ca'
p7
aS'apatya'
p8
aS'dar\xc5\x9bana'
p9
aa(lp10
S'v\xc4\x81'
p11
aasS'dcs_chunks'
p12
(lp13
g5
ag7
ag8
ag9
ag11
asS'sent_id'
p14
I354396
sS'cng'
p15
(lp16
(lp17
S'151'
p18
aa(lp19
S'2'
p20
aS'3'
p21
aS'171'
p22
aa(lp23
g20
aasS'sentence'
p24
S'apatyasya cApatyadarSane vA   '
p25
sb.