(i__main__
DCS
p0
(dp1
S'lemmas'
p2
(lp3
(lp4
S'ka'
p5
aa(lp6
S'hi'
p7
aS'evam'
p8
aa(lp9
S'antar\xc4\x81tman'
p10
aa(lp11
S'br\xc4\x81hma\xe1\xb9\x87a'
p12
aa(lp13
S'han'
p14
aa(lp15
S'arh'
p16
aasS'dcs_chunks'
p17
(lp18
g5
ag7
ag8
ag10
ag12
ag14
ag16
asS'sent_id'
p19
I356011
sS'cng'
p20
(lp21
(lp22
S'29'
p23
aa(lp24
S'2'
p25
ag25
aa(lp26
S'69'
p27
aa(lp28
S'29'
p29
aa(lp30
S'-220'
p31
aa(lp32
S'-13'
p33
aasS'sentence'
p34
S'ko hyevam antarAtmAnaM brAhmaRo hantum arhati   '
p35
sb.