(i__main__
DCS
p0
(dp1
S'lemmas'
p2
(lp3
(lp4
S'atas'
p5
aa(lp6
S'anya'
p7
aa(lp8
S'viv\xc4\x81da'
p9
aa(lp10
S'tri'
p11
aS'\xc5\x9bata'
p12
aa(lp13
S'da\xe1\xb9\x87\xe1\xb8\x8da'
p14
aa(lp15
S'arh'
p16
aasS'dcs_chunks'
p17
(lp18
g5
ag7
ag9
ag11
ag12
ag14
ag16
asS'sent_id'
p19
I368952
sS'cng'
p20
(lp21
(lp22
S'2'
p23
aa(lp24
S'179'
p25
aa(lp26
S'179'
p27
aa(lp28
S'3'
p29
aS'71'
p30
aa(lp31
S'69'
p32
aa(lp33
S'-13'
p34
aasS'sentence'
p35
S"ato 'nyezu vivAdezu triSataM daRqam arhati   "
p36
sb.