(i__main__
DCS
p0
(dp1
S'lemmas'
p2
(lp3
(lp4
S'm\xc4\x81t\xc4\x81'
p5
aS'pit\xe1\xb9\x9b'
p6
aS'guru'
p7
aS'ty\xc4\x81gin'
p8
aa(lp9
S'd\xc4\x81ra'
p10
aS'ty\xc4\x81gin'
p11
aa(lp12
S'tath\xc4\x81'
p13
aS'eva'
p14
aa(lp15
S'ca'
p16
aasS'dcs_chunks'
p17
(lp18
g5
ag6
ag7
ag8
ag10
ag11
ag13
ag14
ag16
asS'sent_id'
p19
I372760
sS'cng'
p20
(lp21
(lp22
S'3'
p23
aS'154'
p24
aS'149'
p25
aS'29'
p26
aa(lp27
g23
aS'29'
p28
aa(lp29
S'2'
p30
ag30
aa(lp31
g30
aasS'sentence'
p32
S'mAtApitrorgurostyAgI dAratyAgI taTEva ca   '
p33
sb.