(i__main__
DCS
p0
(dp1
S'lemmas'
p2
(lp3
(lp4
S't\xc4\x81masa'
p5
aa(lp6
S'hara'
p7
aS'vac'
p8
aa(lp9
S'r\xc4\x81jasa'
p10
aa(lp11
S'praj\xc4\x81pati'
p12
aasS'dcs_chunks'
p13
(lp14
g5
ag7
ag8
ag10
ag12
asS'sent_id'
p15
I376488
sS'cng'
p16
(lp17
(lp18
S'179'
p19
aa(lp20
S'149'
p21
aS'-190'
p22
aa(lp23
S'179'
p24
aa(lp25
S'149'
p26
aasS'sentence'
p27
S'tAmasezu harasyoktaM rAjasezu prajApateH    '
p28
sb.