(i__main__
DCS
p0
(dp1
S'lemmas'
p2
(lp3
(lp4
S'var\xe1\xb9\x87a'
p5
aS'\xc4\x81\xc5\x9brama'
p6
aa(lp7
S'ca'
p8
aa(lp9
S'dharma'
p10
aa(lp11
S'sva'
p12
aa(lp13
S'sth\xc4\x81'
p14
aa(lp15
S'sattama'
p16
aasS'dcs_chunks'
p17
(lp18
g5
ag6
ag8
ag10
ag12
ag14
ag16
asS'sent_id'
p19
I377975
sS'cng'
p20
(lp21
(lp22
S'3'
p23
aS'39'
p24
aa(lp25
S'2'
p26
aa(lp27
S'179'
p28
aa(lp29
S'181'
p30
aa(lp31
S'-59'
p32
aa(lp33
S'49'
p34
aasS'sentence'
p35
S'varRASramAS ca Darmezu svezu sTAsyanti sattama   '
p36
sb.