(i__main__
DCS
p0
(dp1
S'lemmas'
p2
(lp3
(lp4
S'm\xc4\x81dhava'
p5
aS'tu'
p6
aa(lp7
S'vacas'
p8
aa(lp9
S'\xc5\x9bru'
p10
aa(lp11
S'phalguna'
p12
aa(lp13
S'mah\xc4\x81tman'
p14
aasS'dcs_chunks'
p15
(lp16
g5
ag6
ag8
ag10
ag12
ag14
asS'sent_id'
p17
I385564
sS'cng'
p18
(lp19
(lp20
S'29'
p21
aS'2'
p22
aa(lp23
S'71'
p24
aa(lp25
S'-230'
p26
aa(lp27
S'149'
p28
aa(lp29
S'149'
p30
aasS'sentence'
p31
S'mADavastu vacaH  SrutvA Palgunasya mahAtmanaH    '
p32
sb.