(i__main__
DCS
p0
(dp1
S'lemmas'
p2
(lp3
(lp4
S'madhya'
p5
aa(lp6
S'sarva'
p7
aa(lp8
S'sainya'
p9
aa(lp10
S'putra'
p11
aa(lp12
S'tvad'
p13
aa(lp14
S'v\xc4\x81kya'
p15
aa(lp16
S'br\xc5\xab'
p17
aasS'dcs_chunks'
p18
(lp19
g5
ag7
ag9
ag11
ag13
ag15
ag17
asS'sent_id'
p20
I388446
sS'cng'
p21
(lp22
(lp23
S'171'
p24
aa(lp25
S'151'
p26
aa(lp27
S'151'
p28
aa(lp29
S'69'
p30
aa(lp31
S'152'
p32
aa(lp33
S'71'
p34
aa(lp35
S'-43'
p36
aasS'sentence'
p37
S'maDye sarvasya sEnyasya putraM te vAkyam abravIt   '
p38
sb.