(i__main__
DCS
p0
(dp1
S'lemmas'
p2
(lp3
(lp4
S'gu\xe1\xb9\x87a'
p5
aS'do\xe1\xb9\xa3a'
p6
aS'bhid\xc4\x81'
p7
aS'd\xe1\xb9\x9b\xe1\xb9\xa3\xe1\xb9\xadi'
p8
aa(lp9
S'antara'
p10
aa(lp11
S'vacas'
p12
aa(lp13
S'tvad'
p14
aasS'dcs_chunks'
p15
(lp16
g5
ag6
ag7
ag8
ag10
ag12
ag14
asS'sent_id'
p17
I39245
sS'cng'
p18
(lp19
(lp20
S'3'
p21
ag21
ag21
aS'70'
p22
aa(lp23
S'91'
p24
aa(lp25
S'71'
p26
aa(lp27
S'152'
p28
aasS'sentence'
p29
S'guRadozaBidAdfzwim antareRa vacas tava   '
p30
sb.