(i__main__
DCS
p0
(dp1
S'lemmas'
p2
(lp3
(lp4
S'priya'
p5
aa(lp6
S'hi'
p7
aa(lp8
S'tvad'
p9
aa(lp10
S'v\xe1\xb9\x9bt'
p11
aa(lp12
S'bhr\xc4\x81t\xe1\xb9\x9b'
p13
aa(lp14
S'k\xe1\xb9\x9b\xe1\xb9\xa3\xe1\xb9\x87a'
p15
aS'p\xc4\x81\xe1\xb9\x87\xe1\xb8\x8dava'
p16
aasS'dcs_chunks'
p17
(lp18
g5
ag7
ag9
ag11
ag13
ag15
ag16
asS'sent_id'
p19
I395437
sS'cng'
p20
(lp21
(lp22
S'171'
p23
aa(lp24
S'2'
p25
aa(lp26
S'152'
p27
aa(lp28
S'-16'
p29
aa(lp30
S'34'
p31
aa(lp32
S'3'
p33
aS'34'
p34
aasS'sentence'
p35
S'priye hi tava vartete BrAtarO kfzRapARqavO   '
p36
sb.