(i__main__
DCS
p0
(dp1
S'lemmas'
p2
(lp3
(lp4
S'anya'
p5
aa(lp6
S's\xe1\xb9\x9bj'
p7
aa(lp8
S'bhadra'
p9
aa(lp10
S'tvad'
p11
aa(lp12
S'praj\xc4\x81'
p13
aa(lp14
S'm\xe1\xb9\x9btyu'
p15
aS'samanvita'
p16
aasS'dcs_chunks'
p17
(lp18
g5
ag7
ag9
ag11
ag13
ag15
ag16
asS'sent_id'
p19
I40245
sS'cng'
p20
(lp21
(lp22
S'80'
p23
aa(lp24
S'-32'
p25
aa(lp26
S'71'
p27
aa(lp28
S'152'
p29
aa(lp30
S'80'
p31
aa(lp32
S'3'
p33
aS'80'
p34
aasS'sentence'
p35
S'anyAH  sfjasva BadraM te prajA mftyusamanvitAH    '
p36
sb.