(i__main__
DCS
p0
(dp1
S'lemmas'
p2
(lp3
(lp4
S'asatk\xe1\xb9\x9b'
p5
aa(lp6
S'ka'
p7
aa(lp8
S'mad'
p9
aa(lp10
S'adya'
p11
aa(lp12
S'j\xc4\xabvita'
p13
aS'a\xc5\x9bubha'
p14
aa(lp15
S'ha'
p16
aasS'dcs_chunks'
p17
(lp18
g5
ag7
ag9
ag11
ag13
ag14
ag16
asS'sent_id'
p19
I40273
sS'cng'
p20
(lp21
(lp22
S'-190'
p23
aa(lp24
S'31'
p25
aa(lp26
S'152'
p27
aa(lp28
S'2'
p29
aa(lp30
S'91'
p31
aS'91'
p32
aa(lp33
g29
aasS'sentence'
p34
S"asatkftAyAH  kiM me 'dya jIvitenASuBena ha   "
p35
sb.