(i__main__
DCS
p0
(dp1
S'lemmas'
p2
(lp3
(lp4
S'pi\xe1\xb9\x87\xe1\xb8\x8da'
p5
aa(lp6
S'tu'
p7
aa(lp8
S'pat'
p9
aa(lp10
S'dev\xc4\xab'
p11
aa(lp12
S'gardabha'
p13
aS'api'
p14
aa(lp15
S'vimuc'
p16
aasS'dcs_chunks'
p17
(lp18
g5
ag7
ag9
ag11
ag13
ag14
ag16
asS'sent_id'
p19
I40874
sS'cng'
p20
(lp21
(lp22
S'169'
p23
aa(lp24
S'2'
p25
aa(lp26
S'-190'
p27
aa(lp28
S'50'
p29
aa(lp30
S'29'
p31
ag25
aa(lp32
S'-243'
p33
aasS'sentence'
p34
S"piRqe tu patite devi gardaBo'pi vimucyate   "
p35
sb.