(i__main__
DCS
p0
(dp1
S'lemmas'
p2
(lp3
(lp4
S'iti'
p5
aS'vac'
p6
aa(lp7
S'tad'
p8
aa(lp9
S'tad'
p10
aa(lp11
S'deva'
p12
aS'tad'
p13
aS'n\xc4\x81man'
p14
aa(lp15
S'tad'
p16
aS'vara'
p17
aa(lp18
S'vid'
p19
aasS'dcs_chunks'
p20
(lp21
g5
ag6
ag8
ag10
ag12
ag13
ag14
ag16
ag17
ag19
asS'sent_id'
p22
I419356
sS'cng'
p23
(lp24
(lp25
S'2'
p26
aS'-190'
p27
aa(lp28
S'89'
p29
aa(lp30
S'39'
p31
aa(lp32
S'39'
p33
aS'3'
p34
aS'91'
p35
aa(lp36
g34
aS'69'
p37
aa(lp38
S'-159'
p39
aasS'sentence'
p40
S'ityukte tena te devAstannAmnA tadvaraM viduH    '
p41
sb.