(i__main__
DCS
p0
(dp1
S'lemmas'
p2
(lp3
(lp4
S'yad'
p5
aa(lp6
S'abh\xc4\x81vin'
p7
aa(lp8
S'na'
p9
aa(lp10
S'tad'
p11
aa(lp12
S'bh\xc4\x81vin'
p13
aa(lp14
S'bh\xc4\x81vin'
p15
aa(lp16
S'ced'
p17
aS'na'
p18
aa(lp19
S'tad'
p20
aa(lp21
S'anyath\xc4\x81'
p22
aasS'dcs_chunks'
p23
(lp24
g5
ag7
ag9
ag11
ag13
ag15
ag17
ag18
ag20
ag22
asS'sent_id'
p25
I422948
sS'cng'
p26
(lp27
(lp28
S'31'
p29
aa(lp30
S'31'
p31
aa(lp32
S'2'
p33
aa(lp34
S'31'
p35
aa(lp36
S'31'
p37
aa(lp38
S'31'
p39
aa(lp40
g33
ag33
aa(lp41
S'31'
p42
aa(lp43
g33
aasS'sentence'
p44
S'yad aBAvi na tad BAvi BAvi cenna tad anyaTA   '
p45
sb.