(i__main__
DCS
p0
(dp1
S'lemmas'
p2
(lp3
(lp4
S'etad'
p5
aa(lp6
S'ca'
p7
aa(lp8
S'yath\xc4\x81'
p9
aS'anya'
p10
aa(lp11
S'sn\xc4\x81na'
p12
aa(lp13
S'd\xc4\x81na'
p14
aa(lp15
S'japa'
p16
aS'tapas'
p17
aasS'dcs_chunks'
p18
(lp19
g5
ag7
ag9
ag10
ag12
ag14
ag16
ag17
asS'sent_id'
p20
I424318
sS'cng'
p21
(lp22
(lp23
S'181'
p24
aa(lp25
S'2'
p26
aa(lp27
g26
aS'181'
p28
aa(lp29
S'31'
p30
aa(lp31
S'31'
p32
aa(lp33
S'29'
p34
aS'31'
p35
aasS'sentence'
p36
S'etezu ca yaTAnyezu snAnaM dAnaM japastapaH    '
p37
sb.