(i__main__
DCS
p0
(dp1
S'lemmas'
p2
(lp3
(lp4
S'\xc5\x9babda'
p5
aS'spar\xc5\x9bana'
p6
aS'r\xc5\xabpa'
p7
aa(lp8
S'rasa'
p9
aS'gandha'
p10
aS'kriy\xc4\x81'
p11
aa(lp12
S'ca'
p13
aasS'dcs_chunks'
p14
(lp15
g5
ag6
ag7
ag9
ag10
ag11
ag13
asS'sent_id'
p16
I433810
sS'cng'
p17
(lp18
(lp19
S'3'
p20
ag20
aS'181'
p21
aa(lp22
g20
ag20
aS'180'
p23
aa(lp24
S'2'
p25
aasS'sentence'
p26
S'SabdasparSanarUpezu rasaganDakriyAsu ca   '
p27
sb.