(i__main__
DCS
p0
(dp1
S'lemmas'
p2
(lp3
(lp4
S'etad'
p5
aa(lp6
S'druma'
p7
aa(lp8
S'r\xc4\x81jan'
p9
aa(lp10
S'loka'
p11
aa(lp12
S'idam'
p13
aS'na'
p14
aS'atra'
p15
aa(lp16
S'sa\xe1\xb9\x83\xc5\x9baya'
p17
aasS'dcs_chunks'
p18
(lp19
g5
ag7
ag9
ag11
ag13
ag14
ag15
ag17
asS'sent_id'
p20
I433938
sS'cng'
p21
(lp22
(lp23
S'39'
p24
aa(lp25
S'159'
p26
aa(lp27
S'39'
p28
aa(lp29
S'169'
p30
aa(lp31
S'169'
p32
aS'2'
p33
ag33
aa(lp34
S'29'
p35
aasS'sentence'
p36
S"ete drumARAM rAjAno loke 'sminnAtra saMSayaH    "
p37
sb.