(i__main__
DCS
p0
(dp1
S'lemmas'
p2
(lp3
(lp4
S'evam'
p5
aa(lp6
S'gam'
p7
aa(lp8
S'medh\xc4\x81vin'
p9
aa(lp10
S'tattva'
p11
aS'yoga'
p12
aS'vidh\xc4\x81na'
p13
aS'vid'
p14
aasS'dcs_chunks'
p15
(lp16
g5
ag7
ag9
ag11
ag12
ag13
ag14
asS'sent_id'
p17
I434529
sS'cng'
p18
(lp19
(lp20
S'2'
p21
aa(lp22
S'-13'
p23
aa(lp24
S'29'
p25
aa(lp26
S'3'
p27
ag27
ag27
aS'29'
p28
aasS'sentence'
p29
S'evaM gacCati meDAvI tattvayogaviDAnavit   '
p30
sb.