(i__main__
DCS
p0
(dp1
S'lemmas'
p2
(lp3
(lp4
S'r\xc4\x81jan'
p5
aa(lp6
S'putra'
p7
aa(lp8
S'mah\xc4\x81tman'
p9
aa(lp10
S'catur'
p11
aa(lp12
S'jan'
p13
aa(lp14
S'p\xe1\xb9\x9bthak'
p15
aasS'dcs_chunks'
p16
(lp17
g5
ag7
ag9
ag11
ag13
ag15
asS'sent_id'
p18
I43554
sS'cng'
p19
(lp20
(lp21
S'149'
p22
aa(lp23
S'39'
p24
aa(lp25
S'39'
p26
aa(lp27
S'39'
p28
aa(lp29
S'-159'
p30
aa(lp31
S'2'
p32
aasS'sentence'
p33
S'rAjYaH  putrA mahAtmAnaS catvAro jajYire pfTak   '
p34
sb.