(i__main__
DCS
p0
(dp1
S'lemmas'
p2
(lp3
(lp4
S'vac'
p5
aS'ca'
p6
aS'api'
p7
aa(lp8
S'r\xc4\x81jan'
p9
aa(lp10
S'sarva'
p11
aa(lp12
S'saha'
p13
aa(lp14
S'suh\xe1\xb9\x9bd'
p15
aS'jana'
p16
aasS'dcs_chunks'
p17
(lp18
g5
ag6
ag7
ag9
ag11
ag13
ag15
ag16
asS'sent_id'
p19
I437113
sS'cng'
p20
(lp21
(lp22
S'-210'
p23
aS'2'
p24
ag24
aa(lp25
S'39'
p26
aa(lp27
S'99'
p28
aa(lp29
g24
aa(lp30
S'3'
p31
aS'99'
p32
aasS'sentence'
p33
S'vaktavyAScApi rAjAnaH  sarvEH  saha suhfjjanEH    '
p34
sb.