(i__main__
DCS
p0
(dp1
S'lemmas'
p2
(lp3
(lp4
S'etad'
p5
aa(lp6
S'tad'
p7
aa(lp8
S'yad'
p9
aa(lp10
S'ah'
p11
aasS'dcs_chunks'
p12
(lp13
g5
ag7
ag9
ag11
asS'sent_id'
p14
I437867
sS'cng'
p15
(lp16
(lp17
S'31'
p18
aa(lp19
S'31'
p20
aa(lp21
S'71'
p22
aa(lp23
S'-159'
p24
aasS'sentence'
p25
S'etat tad yad AhuH    '
p26
sb.