(i__main__
DCS
p0
(dp1
S'lemmas'
p2
(lp3
(lp4
S'nihan'
p5
aa(lp6
S'tri'
p7
aa(lp8
S'loka'
p9
aa(lp10
S'tvad'
p11
aa(lp12
S'\xe1\xb9\x9bte'
p13
aa(lp14
S'raghunandana'
p15
aasS'dcs_chunks'
p16
(lp17
g5
ag7
ag9
ag11
ag13
ag15
asS'sent_id'
p18
I43915
sS'cng'
p19
(lp20
(lp21
S'-220'
p22
aa(lp23
S'179'
p24
aa(lp25
S'179'
p26
aa(lp27
S'72'
p28
aa(lp29
S'2'
p30
aa(lp31
S'49'
p32
aasS'sentence'
p33
S'nihantuM trizu lokezu tvAm fte raGunandana   '
p34
sb.