(i__main__
DCS
p0
(dp1
S'lemmas'
p2
(lp3
(lp4
S't\xc4\x81vat'
p5
aa(lp6
S'p\xc4\x81pa'
p7
aa(lp8
S'deha'
p9
aa(lp10
S'idam'
p11
aa(lp12
S'sth\xc4\x81'
p13
aa(lp14
S'manuja'
p15
aS'adhipa'
p16
aasS'dcs_chunks'
p17
(lp18
g5
ag7
ag9
ag11
ag13
ag15
ag16
asS'sent_id'
p19
I440427
sS'cng'
p20
(lp21
(lp22
S'2'
p23
aa(lp24
S'41'
p25
aa(lp26
S'169'
p27
aa(lp28
S'169'
p29
aa(lp30
S'-19'
p31
aa(lp32
S'3'
p33
aS'49'
p34
aasS'sentence'
p35
S"tAvat pApAni dehe 'smiMs tizWanti manujADipa   "
p36
sb.