(i__main__
DCS
p0
(dp1
S'lemmas'
p2
(lp3
(lp4
S'pracch'
p5
aa(lp6
S'muni'
p7
aS'\xc5\x9b\xc4\x81rd\xc5\xabla'
p8
aa(lp9
S'kaut\xc5\xabhala'
p10
aS'samanvita'
p11
aasS'dcs_chunks'
p12
(lp13
g5
ag7
ag8
ag10
ag11
asS'sent_id'
p14
I44185
sS'cng'
p15
(lp16
(lp17
S'-153'
p18
aa(lp19
S'3'
p20
aS'69'
p21
aa(lp22
g20
aS'29'
p23
aasS'sentence'
p24
S'papracCa muniSArdUlaM kOtUhalasamanvitaH    '
p25
sb.