(i__main__
DCS
p0
(dp1
S'lemmas'
p2
(lp3
(lp4
S'vistara'
p5
aa(lp6
S'vistara'
p7
aS'j\xc3\xb1a'
p8
aa(lp9
S'as'
p10
aa(lp11
S'divya'
p12
aS'm\xc4\x81nu\xe1\xb9\xa3a'
p13
aS'sambhava'
p14
aasS'dcs_chunks'
p15
(lp16
g5
ag7
ag8
ag10
ag12
ag13
ag14
asS'sent_id'
p17
I44375
sS'cng'
p18
(lp19
(lp20
S'69'
p21
aa(lp22
S'3'
p23
aS'29'
p24
aa(lp25
S'-12'
p26
aa(lp27
g23
ag23
aS'69'
p28
aasS'sentence'
p29
S"vistaraM vistarajYo 'si divyamAnuzasamBavam   "
p30
sb.