(i__main__
DCS
p0
(dp1
S'lemmas'
p2
(lp3
(lp4
S'dak\xe1\xb9\xa3a'
p5
aS'netra'
p6
aa(lp7
S'cumbana'
p8
aa(lp9
S'ca'
p10
aa(lp11
S'bh\xc4\x81skara'
p12
aS'graha\xe1\xb9\x87a'
p13
aa(lp14
S'tad\xc4\x81'
p15
aasS'dcs_chunks'
p16
(lp17
g5
ag6
ag8
ag10
ag12
ag13
ag15
asS'sent_id'
p18
I473
sS'cng'
p19
(lp20
(lp21
S'3'
p22
aS'171'
p23
aa(lp24
S'171'
p25
aa(lp26
S'2'
p27
aa(lp28
g22
aS'31'
p29
aa(lp30
g27
aasS'sentence'
p31
S'dakzanetre cumbane ca BAskaragrahaRaM tadA   '
p32
sb.