(i__main__
DCS
p0
(dp1
S'lemmas'
p2
(lp3
(lp4
S'evam'
p5
aa(lp6
S'mad'
p7
aa(lp8
S'vac'
p9
aa(lp10
S'lak\xe1\xb9\xa3ma\xe1\xb9\x87a'
p11
aa(lp12
S'mah\xc4\x81tman'
p13
aasS'dcs_chunks'
p14
(lp15
g5
ag7
ag9
ag11
ag13
asS'sent_id'
p16
I56550
sS'cng'
p17
(lp18
(lp19
S'2'
p20
aa(lp21
S'102'
p22
aa(lp23
S'-190'
p24
aa(lp25
S'89'
p26
aa(lp27
S'89'
p28
aasS'sentence'
p29
S'evam asmABir uktena lakzmaRena mahAtmanA   '
p30
sb.