(i__main__
DCS
p0
(dp1
S'lemmas'
p2
(lp3
(lp4
S'dravya'
p5
aS'\xc4\x81di'
p6
aa(lp7
S'prabh\xc4\x81va'
p8
aS'anta'
p9
aasS'dcs_chunks'
p10
(lp11
g5
ag6
ag8
ag9
asS'sent_id'
p12
I57515
sS'cng'
p13
(lp14
(lp15
S'3'
p16
aS'159'
p17
aa(lp18
g16
aS'159'
p19
aasS'sentence'
p20
S'dravyAdInAM praBAvAntAnAm   '
p21
sb.