(i__main__
DCS
p0
(dp1
S'lemmas'
p2
(lp3
(lp4
S'setu'
p5
aa(lp6
S'satya'
p7
aa(lp8
S'bhid'
p9
aa(lp10
S'guru'
p11
aa(lp12
S'satya'
p13
aS'prati\xc5\x9brava'
p14
aasS'dcs_chunks'
p15
(lp16
g5
ag7
ag9
ag11
ag13
ag14
asS'sent_id'
p17
I58901
sS'cng'
p18
(lp19
(lp20
S'69'
p21
aa(lp22
S'151'
p23
aa(lp24
S'-51'
p25
aa(lp26
S'149'
p27
aa(lp28
S'3'
p29
aS'29'
p30
aasS'sentence'
p31
S'setuM satyasya BetsyAmi guroH  satyapratiSravaH    '
p32
sb.