(i__main__
DCS
p0
(dp1
S'lemmas'
p2
(lp3
(lp4
S'sam\xc4\x81na'
p5
aa(lp6
S'p\xc5\xabrva'
p7
aS'iti'
p8
aa(lp9
S'p\xc5\xabrva'
p10
aS'yoga'
p11
aS'phala'
p12
aS'\xc5\x9bruti'
p13
aS'etad'
p14
aS'api'
p15
aa(lp16
S'yuj'
p17
aa(lp18
S'iti'
p19
aS'artha'
p20
aasS'dcs_chunks'
p21
(lp22
g5
ag7
ag8
ag10
ag11
ag12
ag13
ag14
ag15
ag17
ag19
ag20
asS'sent_id'
p23
I59531
sS'cng'
p24
(lp25
(lp26
S'31'
p27
aa(lp28
S'91'
p29
aS'2'
p30
aa(lp31
S'3'
p32
ag32
ag32
aS'90'
p33
aS'31'
p34
ag30
aa(lp35
S'-190'
p36
aa(lp37
g30
aS'29'
p38
aasS'sentence'
p39
S'samAnaM pUrveReti pUrvayogaPalaSrutyEtadapi yuktam ityarTaH    '
p40
sb.