(i__main__
DCS
p0
(dp1
S'lemmas'
p2
(lp3
(lp4
S'dhva\xe1\xb9\x83s'
p5
aS'v\xe1\xb9\x9bk\xe1\xb9\xa3a'
p6
aS'lat\xc4\x81'
p7
aS'gulma'
p8
aa(lp9
S'durdar\xc5\x9ba'
p10
aS'salil\xc4\x81\xc5\x9baya'
p11
aasS'dcs_chunks'
p12
(lp13
g5
ag6
ag7
ag8
ag10
ag11
asS'sent_id'
p14
I59641
sS'cng'
p15
(lp16
(lp17
S'-190'
p18
aS'3'
p19
ag19
aS'71'
p20
aa(lp21
g19
aS'71'
p22
aasS'sentence'
p23
S'DvastavfkzalatAgulmaM durdarSasalilASayam   '
p24
sb.