(i__main__
DCS
p0
(dp1
S'lemmas'
p2
(lp3
(lp4
S'pat'
p5
aa(lp6
S'kavaca'
p7
aa(lp8
S'bh\xc5\xabmi'
p9
aa(lp10
S'r\xc4\x81ma'
p11
aS'\xc4\x81ditya'
p12
aS'varcas'
p13
aasS'dcs_chunks'
p14
(lp15
g5
ag7
ag9
ag11
ag12
ag13
asS'sent_id'
p16
I64460
sS'cng'
p17
(lp18
(lp19
S'-153'
p20
aa(lp21
S'31'
p22
aa(lp23
S'170'
p24
aa(lp25
S'149'
p26
aS'3'
p27
aS'149'
p28
aasS'sentence'
p29
S'papAta kavacaM BUmO rAmasyAdityavarcasaH    '
p30
sb.