(i__main__
DCS
p0
(dp1
S'lemmas'
p2
(lp3
(lp4
S'sa\xc3\xb1j'
p5
aa(lp6
S'gr\xc4\x81mya'
p7
aa(lp8
S'bhoga'
p9
aa(lp10
S'k\xc4\x81ma'
p11
aS'v\xe1\xb9\x9bt'
p12
aa(lp13
S'mah\xc4\xabpati'
p14
aasS'dcs_chunks'
p15
(lp16
g5
ag7
ag9
ag11
ag12
ag14
asS'sent_id'
p17
I64898
sS'cng'
p18
(lp19
(lp20
S'-190'
p21
aa(lp22
S'179'
p23
aa(lp24
S'179'
p25
aa(lp26
S'3'
p27
aS'-190'
p28
aa(lp29
S'69'
p30
aasS'sentence'
p31
S'saktaM grAmyezu Bogezu kAmavfttaM mahIpatim   '
p32
sb.