(i__main__
DCS
p0
(dp1
S'lemmas'
p2
(lp3
(lp4
S'kr\xc4\xab\xe1\xb8\x8d\xc4\x81'
p5
aS'rati'
p6
aS'vidhi'
p7
aS'j\xc3\xb1a'
p8
aa(lp9
S'apsaras'
p10
aa(lp11
S'sahasra\xc5\x9bas'
p12
aasS'dcs_chunks'
p13
(lp14
g5
ag6
ag7
ag8
ag10
ag12
asS'sent_id'
p15
I65156
sS'cng'
p16
(lp17
(lp18
S'3'
p19
ag19
ag19
aS'100'
p20
aa(lp21
S'100'
p22
aa(lp23
S'2'
p24
aasS'sentence'
p25
S'krIqArativiDijYABir apsaroBiH  sahasraSaH    '
p26
sb.