(i__main__
DCS
p0
(dp1
S'lemmas'
p2
(lp3
(lp4
S'kar\xe1\xb9\xa3a'
p5
aa(lp6
S'kharpara'
p7
aS'sattva'
p8
aa(lp9
S'\xe1\xb9\xa3a\xe1\xb9\xa3'
p10
aS'm\xc4\x81sa'
p11
aa(lp12
S'heman'
p13
aa(lp14
S'vidru'
p15
aasS'dcs_chunks'
p16
(lp17
g5
ag7
ag8
ag10
ag11
ag13
ag15
asS'sent_id'
p18
I73255
sS'cng'
p19
(lp20
(lp21
S'31'
p22
aa(lp23
S'3'
p24
aS'151'
p25
aa(lp26
g24
aS'169'
p27
aa(lp28
S'171'
p29
aa(lp30
S'-190'
p31
aasS'sentence'
p32
S'karzaM Karparasattvasya zaRmAse hemni vidrute   '
p33
sb.