(i__main__
DCS
p0
(dp1
S'lemmas'
p2
(lp3
(lp4
S'vivak\xe1\xb9\xa3\xc4\x81'
p5
aS'yatna'
p6
aS'p\xc5\xabrva'
p7
aa(lp8
S'ko\xe1\xb9\xa3\xe1\xb9\xadha'
p9
aS'vyoman'
p10
aS'gu\xe1\xb9\x87a'
p11
aS'dhvani'
p12
aasS'dcs_chunks'
p13
(lp14
g5
ag6
ag7
ag9
ag10
ag11
ag12
asS'sent_id'
p15
I76616
sS'cng'
p16
(lp17
(lp18
S'3'
p19
ag19
aS'89'
p20
aa(lp21
g19
ag19
ag19
aS'149'
p22
aasS'sentence'
p23
S'vivakzAyatnapUrveRa kozWavyomaguRaDvaneH    '
p24
sb.