(i__main__
DCS
p0
(dp1
S'lemmas'
p2
(lp3
(lp4
S'jye\xe1\xb9\xa3\xe1\xb9\xadha'
p5
aa(lp6
S'kamala'
p7
aS'mand\xc4\x81ra'
p8
aS'\xc4\x81\xe1\xb9\xa3\xc4\x81\xe1\xb8\x8dha'
p9
aa(lp10
S'ca'
p11
aa(lp12
S'nava'
p13
aS'ambuja'
p14
aasS'dcs_chunks'
p15
(lp16
g5
ag7
ag8
ag9
ag11
ag13
ag14
asS'sent_id'
p17
I94910
sS'cng'
p18
(lp19
(lp20
S'169'
p21
aa(lp22
S'3'
p23
aS'99'
p24
aS'169'
p25
aa(lp26
S'2'
p27
aa(lp28
g23
aS'99'
p29
aasS'sentence'
p30
S'jyezWe kamalamandArErAzAQe ca navAmbujEH    '
p31
sb.